Archive member included to satisfy reference by file (symbol)

/home/jon/gcc-arm-none-eabi-5_2-2015q4/arm-none-eabi/lib/armv7e-m/fpu/libc.a(lib_a-errno.o)
                              /home/jon/dev_src/SEU-Detect-Correct/build/syscalls.o (__errno)
/home/jon/gcc-arm-none-eabi-5_2-2015q4/arm-none-eabi/lib/armv7e-m/fpu/libc.a(lib_a-impure.o)
                              /home/jon/gcc-arm-none-eabi-5_2-2015q4/arm-none-eabi/lib/armv7e-m/fpu/libc.a(lib_a-errno.o) (_impure_ptr)
/home/jon/gcc-arm-none-eabi-5_2-2015q4/arm-none-eabi/lib/armv7e-m/fpu/libc.a(lib_a-memcmp.o)
                              /home/jon/dev_src/SEU-Detect-Correct/build/tasks.o (memcmp)
/home/jon/gcc-arm-none-eabi-5_2-2015q4/arm-none-eabi/lib/armv7e-m/fpu/libc.a(lib_a-memcpy.o)
                              /home/jon/dev_src/SEU-Detect-Correct/build/queue.o (memcpy)
/home/jon/gcc-arm-none-eabi-5_2-2015q4/arm-none-eabi/lib/armv7e-m/fpu/libc.a(lib_a-memset.o)
                              /home/jon/dev_src/SEU-Detect-Correct/build/syscalls.o (memset)
/home/jon/gcc-arm-none-eabi-5_2-2015q4/arm-none-eabi/lib/armv7e-m/fpu/libc.a(lib_a-puts.o)
                              /home/jon/dev_src/SEU-Detect-Correct/build/main.o (puts)
/home/jon/gcc-arm-none-eabi-5_2-2015q4/arm-none-eabi/lib/armv7e-m/fpu/libc.a(lib_a-strlen.o)
                              /home/jon/gcc-arm-none-eabi-5_2-2015q4/arm-none-eabi/lib/armv7e-m/fpu/libc.a(lib_a-puts.o) (strlen)
/home/jon/gcc-arm-none-eabi-5_2-2015q4/arm-none-eabi/lib/armv7e-m/fpu/libc.a(lib_a-findfp.o)
                              /home/jon/gcc-arm-none-eabi-5_2-2015q4/arm-none-eabi/lib/armv7e-m/fpu/libc.a(lib_a-puts.o) (__sinit)
/home/jon/gcc-arm-none-eabi-5_2-2015q4/arm-none-eabi/lib/armv7e-m/fpu/libc.a(lib_a-fvwrite.o)
                              /home/jon/gcc-arm-none-eabi-5_2-2015q4/arm-none-eabi/lib/armv7e-m/fpu/libc.a(lib_a-puts.o) (__sfvwrite_r)
/home/jon/gcc-arm-none-eabi-5_2-2015q4/arm-none-eabi/lib/armv7e-m/fpu/libc.a(lib_a-fwalk.o)
                              /home/jon/gcc-arm-none-eabi-5_2-2015q4/arm-none-eabi/lib/armv7e-m/fpu/libc.a(lib_a-findfp.o) (_fwalk)
/home/jon/gcc-arm-none-eabi-5_2-2015q4/arm-none-eabi/lib/armv7e-m/fpu/libc.a(lib_a-mallocr.o)
                              /home/jon/gcc-arm-none-eabi-5_2-2015q4/arm-none-eabi/lib/armv7e-m/fpu/libc.a(lib_a-findfp.o) (_malloc_r)
/home/jon/gcc-arm-none-eabi-5_2-2015q4/arm-none-eabi/lib/armv7e-m/fpu/libc.a(lib_a-memchr.o)
                              /home/jon/gcc-arm-none-eabi-5_2-2015q4/arm-none-eabi/lib/armv7e-m/fpu/libc.a(lib_a-fvwrite.o) (memchr)
/home/jon/gcc-arm-none-eabi-5_2-2015q4/arm-none-eabi/lib/armv7e-m/fpu/libc.a(lib_a-memmove.o)
                              /home/jon/gcc-arm-none-eabi-5_2-2015q4/arm-none-eabi/lib/armv7e-m/fpu/libc.a(lib_a-fvwrite.o) (memmove)
/home/jon/gcc-arm-none-eabi-5_2-2015q4/arm-none-eabi/lib/armv7e-m/fpu/libc.a(lib_a-mlock.o)
                              /home/jon/gcc-arm-none-eabi-5_2-2015q4/arm-none-eabi/lib/armv7e-m/fpu/libc.a(lib_a-mallocr.o) (__malloc_lock)
/home/jon/gcc-arm-none-eabi-5_2-2015q4/arm-none-eabi/lib/armv7e-m/fpu/libc.a(lib_a-reallocr.o)
                              /home/jon/gcc-arm-none-eabi-5_2-2015q4/arm-none-eabi/lib/armv7e-m/fpu/libc.a(lib_a-fvwrite.o) (_realloc_r)
/home/jon/gcc-arm-none-eabi-5_2-2015q4/arm-none-eabi/lib/armv7e-m/fpu/libc.a(lib_a-sbrkr.o)
                              /home/jon/gcc-arm-none-eabi-5_2-2015q4/arm-none-eabi/lib/armv7e-m/fpu/libc.a(lib_a-mallocr.o) (_sbrk_r)
/home/jon/gcc-arm-none-eabi-5_2-2015q4/arm-none-eabi/lib/armv7e-m/fpu/libc.a(lib_a-stdio.o)
                              /home/jon/gcc-arm-none-eabi-5_2-2015q4/arm-none-eabi/lib/armv7e-m/fpu/libc.a(lib_a-findfp.o) (__sread)
/home/jon/gcc-arm-none-eabi-5_2-2015q4/arm-none-eabi/lib/armv7e-m/fpu/libc.a(lib_a-writer.o)
                              /home/jon/gcc-arm-none-eabi-5_2-2015q4/arm-none-eabi/lib/armv7e-m/fpu/libc.a(lib_a-stdio.o) (_write_r)
/home/jon/gcc-arm-none-eabi-5_2-2015q4/arm-none-eabi/lib/armv7e-m/fpu/libc.a(lib_a-wsetup.o)
                              /home/jon/gcc-arm-none-eabi-5_2-2015q4/arm-none-eabi/lib/armv7e-m/fpu/libc.a(lib_a-fvwrite.o) (__swsetup_r)
/home/jon/gcc-arm-none-eabi-5_2-2015q4/arm-none-eabi/lib/armv7e-m/fpu/libc.a(lib_a-closer.o)
                              /home/jon/gcc-arm-none-eabi-5_2-2015q4/arm-none-eabi/lib/armv7e-m/fpu/libc.a(lib_a-stdio.o) (_close_r)
/home/jon/gcc-arm-none-eabi-5_2-2015q4/arm-none-eabi/lib/armv7e-m/fpu/libc.a(lib_a-fclose.o)
                              /home/jon/gcc-arm-none-eabi-5_2-2015q4/arm-none-eabi/lib/armv7e-m/fpu/libc.a(lib_a-findfp.o) (_fclose_r)
/home/jon/gcc-arm-none-eabi-5_2-2015q4/arm-none-eabi/lib/armv7e-m/fpu/libc.a(lib_a-fflush.o)
                              /home/jon/gcc-arm-none-eabi-5_2-2015q4/arm-none-eabi/lib/armv7e-m/fpu/libc.a(lib_a-fclose.o) (__sflush_r)
/home/jon/gcc-arm-none-eabi-5_2-2015q4/arm-none-eabi/lib/armv7e-m/fpu/libc.a(lib_a-freer.o)
                              /home/jon/gcc-arm-none-eabi-5_2-2015q4/arm-none-eabi/lib/armv7e-m/fpu/libc.a(lib_a-fvwrite.o) (_free_r)
/home/jon/gcc-arm-none-eabi-5_2-2015q4/arm-none-eabi/lib/armv7e-m/fpu/libc.a(lib_a-lseekr.o)
                              /home/jon/gcc-arm-none-eabi-5_2-2015q4/arm-none-eabi/lib/armv7e-m/fpu/libc.a(lib_a-stdio.o) (_lseek_r)
/home/jon/gcc-arm-none-eabi-5_2-2015q4/arm-none-eabi/lib/armv7e-m/fpu/libc.a(lib_a-makebuf.o)
                              /home/jon/gcc-arm-none-eabi-5_2-2015q4/arm-none-eabi/lib/armv7e-m/fpu/libc.a(lib_a-wsetup.o) (__smakebuf_r)
/home/jon/gcc-arm-none-eabi-5_2-2015q4/arm-none-eabi/lib/armv7e-m/fpu/libc.a(lib_a-readr.o)
                              /home/jon/gcc-arm-none-eabi-5_2-2015q4/arm-none-eabi/lib/armv7e-m/fpu/libc.a(lib_a-stdio.o) (_read_r)
/home/jon/gcc-arm-none-eabi-5_2-2015q4/arm-none-eabi/lib/armv7e-m/fpu/libc.a(lib_a-reent.o)
                              /home/jon/gcc-arm-none-eabi-5_2-2015q4/arm-none-eabi/lib/armv7e-m/fpu/libc.a(lib_a-sbrkr.o) (errno)
/home/jon/gcc-arm-none-eabi-5_2-2015q4/arm-none-eabi/lib/armv7e-m/fpu/libc.a(lib_a-fstatr.o)
                              /home/jon/gcc-arm-none-eabi-5_2-2015q4/arm-none-eabi/lib/armv7e-m/fpu/libc.a(lib_a-makebuf.o) (_fstat_r)
/home/jon/gcc-arm-none-eabi-5_2-2015q4/arm-none-eabi/lib/armv7e-m/fpu/libc.a(lib_a-isattyr.o)
                              /home/jon/gcc-arm-none-eabi-5_2-2015q4/arm-none-eabi/lib/armv7e-m/fpu/libc.a(lib_a-makebuf.o) (_isatty_r)
/home/jon/gcc-arm-none-eabi-5_2-2015q4/arm-none-eabi/lib/armv7e-m/fpu/libm.a(lib_a-sf_sin.o)
                              /home/jon/dev_src/SEU-Detect-Correct/build/main.o (sinf)
/home/jon/gcc-arm-none-eabi-5_2-2015q4/arm-none-eabi/lib/armv7e-m/fpu/libm.a(lib_a-ef_rem_pio2.o)
                              /home/jon/gcc-arm-none-eabi-5_2-2015q4/arm-none-eabi/lib/armv7e-m/fpu/libm.a(lib_a-sf_sin.o) (__ieee754_rem_pio2f)
/home/jon/gcc-arm-none-eabi-5_2-2015q4/arm-none-eabi/lib/armv7e-m/fpu/libm.a(lib_a-kf_cos.o)
                              /home/jon/gcc-arm-none-eabi-5_2-2015q4/arm-none-eabi/lib/armv7e-m/fpu/libm.a(lib_a-sf_sin.o) (__kernel_cosf)
/home/jon/gcc-arm-none-eabi-5_2-2015q4/arm-none-eabi/lib/armv7e-m/fpu/libm.a(lib_a-kf_rem_pio2.o)
                              /home/jon/gcc-arm-none-eabi-5_2-2015q4/arm-none-eabi/lib/armv7e-m/fpu/libm.a(lib_a-ef_rem_pio2.o) (__kernel_rem_pio2f)
/home/jon/gcc-arm-none-eabi-5_2-2015q4/arm-none-eabi/lib/armv7e-m/fpu/libm.a(lib_a-kf_sin.o)
                              /home/jon/gcc-arm-none-eabi-5_2-2015q4/arm-none-eabi/lib/armv7e-m/fpu/libm.a(lib_a-sf_sin.o) (__kernel_sinf)
/home/jon/gcc-arm-none-eabi-5_2-2015q4/arm-none-eabi/lib/armv7e-m/fpu/libm.a(lib_a-sf_fabs.o)
                              /home/jon/gcc-arm-none-eabi-5_2-2015q4/arm-none-eabi/lib/armv7e-m/fpu/libm.a(lib_a-ef_rem_pio2.o) (fabsf)
/home/jon/gcc-arm-none-eabi-5_2-2015q4/arm-none-eabi/lib/armv7e-m/fpu/libm.a(lib_a-sf_floor.o)
                              /home/jon/gcc-arm-none-eabi-5_2-2015q4/arm-none-eabi/lib/armv7e-m/fpu/libm.a(lib_a-kf_rem_pio2.o) (floorf)
/home/jon/gcc-arm-none-eabi-5_2-2015q4/arm-none-eabi/lib/armv7e-m/fpu/libm.a(lib_a-sf_scalbn.o)
                              /home/jon/gcc-arm-none-eabi-5_2-2015q4/arm-none-eabi/lib/armv7e-m/fpu/libm.a(lib_a-kf_rem_pio2.o) (scalbnf)
/home/jon/gcc-arm-none-eabi-5_2-2015q4/arm-none-eabi/lib/armv7e-m/fpu/libm.a(lib_a-sf_copysign.o)
                              /home/jon/gcc-arm-none-eabi-5_2-2015q4/arm-none-eabi/lib/armv7e-m/fpu/libm.a(lib_a-sf_scalbn.o) (copysignf)

Allocating common symbols
Common symbol       size              file

timestamps          0x40              build/trace_functions.o
errno               0x4               /home/jon/gcc-arm-none-eabi-5_2-2015q4/arm-none-eabi/lib/armv7e-m/fpu/libc.a(lib_a-reent.o)
xQueueRegistry      0x40              /home/jon/dev_src/SEU-Detect-Correct/build/queue.o

Memory Configuration

Name             Origin             Length             Attributes
sram             0x20000000         0x00030000         w !xr
CCMRAM           0x60000000         0x00000000         xrw
flash0           0x08000000         0x00004000         xrw
flash1           0x08004000         0x00004000         xrw
flash2           0x08008000         0x00004000         xrw
flash3           0x0800c000         0x00004000         xrw
flash4           0x08010000         0x00010000         xrw
flash5           0x08020000         0x00010000         xrw
flash6           0x08030000         0x00010000         xrw
flash7           0x08040000         0x00010000         xrw
flash8           0x08050000         0x00010000         xrw
flash9           0x08060000         0x00010000         xrw
flash10          0x08070000         0x00010000         xrw
flash11          0x08080000         0x00010000         xrw
flash12          0x08090000         0x00010000         xrw
flash13          0x080a0000         0x00010000         xrw
flash14          0x080b0000         0x00010000         xrw
flash17          0x080e0000         0x00020000         xrw
*default*        0x00000000         0xffffffff

Linker script and memory map

LOAD /home/jon/dev_src/SEU-Detect-Correct/build/system_stm32f4xx.o
LOAD /home/jon/dev_src/SEU-Detect-Correct/build/main.o
LOAD /home/jon/dev_src/SEU-Detect-Correct/build/syscalls.o
LOAD /home/jon/dev_src/SEU-Detect-Correct/build/port.o
LOAD /home/jon/dev_src/SEU-Detect-Correct/build/list.o
LOAD /home/jon/dev_src/SEU-Detect-Correct/build/queue.o
LOAD /home/jon/dev_src/SEU-Detect-Correct/build/tasks.o
LOAD /home/jon/dev_src/SEU-Detect-Correct/build/event_groups.o
LOAD /home/jon/dev_src/SEU-Detect-Correct/build/timers.o
LOAD /home/jon/dev_src/SEU-Detect-Correct/build/heap_4.o
LOAD /home/jon/dev_src/SEU-Detect-Correct/build/stm32f4xx_syscfg.o
LOAD /home/jon/dev_src/SEU-Detect-Correct/build/misc.o
LOAD /home/jon/dev_src/SEU-Detect-Correct/build/stm32f4xx_adc.o
LOAD /home/jon/dev_src/SEU-Detect-Correct/build/stm32f4xx_dac.o
LOAD /home/jon/dev_src/SEU-Detect-Correct/build/stm32f4xx_dma.o
LOAD /home/jon/dev_src/SEU-Detect-Correct/build/stm32f4xx_exti.o
LOAD /home/jon/dev_src/SEU-Detect-Correct/build/stm32f4xx_flash.o
LOAD /home/jon/dev_src/SEU-Detect-Correct/build/stm32f4xx_gpio.o
LOAD /home/jon/dev_src/SEU-Detect-Correct/build/stm32f4xx_i2c.o
LOAD /home/jon/dev_src/SEU-Detect-Correct/build/stm32f4xx_rcc.o
LOAD /home/jon/dev_src/SEU-Detect-Correct/build/stm32f4xx_spi.o
LOAD /home/jon/dev_src/SEU-Detect-Correct/build/stm32f4xx_tim.o
LOAD /home/jon/dev_src/SEU-Detect-Correct/build/stm32f4xx_usart.o
LOAD /home/jon/dev_src/SEU-Detect-Correct/build/stm32f4xx_rng.o
LOAD build/trace_functions.o
LOAD /home/jon/dev_src/SEU-Detect-Correct/build/startup_stm32f4xx.o
LOAD /home/jon/gcc-arm-none-eabi-5_2-2015q4/arm-none-eabi/lib/armv7e-m/fpu/libc.a
LOAD /home/jon/gcc-arm-none-eabi-5_2-2015q4/arm-none-eabi/lib/armv7e-m/fpu/libm.a
START GROUP
LOAD /home/jon/gcc-arm-none-eabi-5_2-2015q4/bin/../lib/gcc/arm-none-eabi/5.2.1/libgcc.a
LOAD /home/jon/gcc-arm-none-eabi-5_2-2015q4/bin/../lib/gcc/arm-none-eabi/5.2.1/../../../../arm-none-eabi/lib/libg.a
LOAD /home/jon/gcc-arm-none-eabi-5_2-2015q4/bin/../lib/gcc/arm-none-eabi/5.2.1/../../../../arm-none-eabi/lib/libc.a
END GROUP

.text0          0x08000000     0x35dc
                0x08000000                . = ALIGN (0x4)
 *(.flash0hdr.FlashHeader0)
 *(.flash0func.section0_profile_func_enter)
 *(.text.ADC_AnalogWatchdogCmd)
 .text.ADC_AnalogWatchdogCmd
                0x08000000       0x50 /home/jon/dev_src/SEU-Detect-Correct/build/stm32f4xx_adc.o
                0x08000000                ADC_AnalogWatchdogCmd
 *(.text.ADC_AnalogWatchdogSingleChannelConfig)
 *fill*         0x08000050       0x10 
 .text.ADC_AnalogWatchdogSingleChannelConfig
                0x08000060       0x50 /home/jon/dev_src/SEU-Detect-Correct/build/stm32f4xx_adc.o
                0x08000060                ADC_AnalogWatchdogSingleChannelConfig
 *(.text.ADC_AnalogWatchdogThresholdsConfig)
 *fill*         0x080000b0       0x10 
 .text.ADC_AnalogWatchdogThresholdsConfig
                0x080000c0       0x40 /home/jon/dev_src/SEU-Detect-Correct/build/stm32f4xx_adc.o
                0x080000c0                ADC_AnalogWatchdogThresholdsConfig
 *(.text.ADC_AutoInjectedConvCmd)
 .text.ADC_AutoInjectedConvCmd
                0x08000100       0x50 /home/jon/dev_src/SEU-Detect-Correct/build/stm32f4xx_adc.o
                0x08000100                ADC_AutoInjectedConvCmd
 *(.text.ADC_ClearFlag)
 *fill*         0x08000150       0x10 
 .text.ADC_ClearFlag
                0x08000160       0x38 /home/jon/dev_src/SEU-Detect-Correct/build/stm32f4xx_adc.o
                0x08000160                ADC_ClearFlag
 *(.text.ADC_ClearITPendingBit)
 *fill*         0x08000198        0x8 
 .text.ADC_ClearITPendingBit
                0x080001a0       0x44 /home/jon/dev_src/SEU-Detect-Correct/build/stm32f4xx_adc.o
                0x080001a0                ADC_ClearITPendingBit
 *(.text.ADC_Cmd)
 *fill*         0x080001e4       0x1c 
 .text.ADC_Cmd  0x08000200       0x50 /home/jon/dev_src/SEU-Detect-Correct/build/stm32f4xx_adc.o
                0x08000200                ADC_Cmd
 *(.text.ADC_CommonInit)
 *fill*         0x08000250       0x10 
 .text.ADC_CommonInit
                0x08000260       0x68 /home/jon/dev_src/SEU-Detect-Correct/build/stm32f4xx_adc.o
                0x08000260                ADC_CommonInit
 *(.text.ADC_CommonStructInit)
 *fill*         0x080002c8       0x18 
 .text.ADC_CommonStructInit
                0x080002e0       0x44 /home/jon/dev_src/SEU-Detect-Correct/build/stm32f4xx_adc.o
                0x080002e0                ADC_CommonStructInit
 *(.text.ADC_ContinuousModeCmd)
 *fill*         0x08000324       0x1c 
 .text.ADC_ContinuousModeCmd
                0x08000340       0x50 /home/jon/dev_src/SEU-Detect-Correct/build/stm32f4xx_adc.o
                0x08000340                ADC_ContinuousModeCmd
 *(.text.ADC_DeInit)
 *fill*         0x08000390       0x10 
 .text.ADC_DeInit
                0x080003a0       0x38 /home/jon/dev_src/SEU-Detect-Correct/build/stm32f4xx_adc.o
                0x080003a0                ADC_DeInit
 *(.text.ADC_DiscModeChannelCountConfig)
 *fill*         0x080003d8        0x8 
 .text.ADC_DiscModeChannelCountConfig
                0x080003e0       0x5c /home/jon/dev_src/SEU-Detect-Correct/build/stm32f4xx_adc.o
                0x080003e0                ADC_DiscModeChannelCountConfig
 *(.text.ADC_DiscModeCmd)
 *fill*         0x0800043c        0x4 
 .text.ADC_DiscModeCmd
                0x08000440       0x50 /home/jon/dev_src/SEU-Detect-Correct/build/stm32f4xx_adc.o
                0x08000440                ADC_DiscModeCmd
 *(.text.ADC_DMACmd)
 *fill*         0x08000490       0x10 
 .text.ADC_DMACmd
                0x080004a0       0x50 /home/jon/dev_src/SEU-Detect-Correct/build/stm32f4xx_adc.o
                0x080004a0                ADC_DMACmd
 *(.text.ADC_DMARequestAfterLastTransferCmd)
 *fill*         0x080004f0       0x10 
 .text.ADC_DMARequestAfterLastTransferCmd
                0x08000500       0x50 /home/jon/dev_src/SEU-Detect-Correct/build/stm32f4xx_adc.o
                0x08000500                ADC_DMARequestAfterLastTransferCmd
 *(.text.ADC_EOCOnEachRegularChannelCmd)
 *fill*         0x08000550       0x10 
 .text.ADC_EOCOnEachRegularChannelCmd
                0x08000560       0x50 /home/jon/dev_src/SEU-Detect-Correct/build/stm32f4xx_adc.o
                0x08000560                ADC_EOCOnEachRegularChannelCmd
 *(.text.ADC_ExternalTrigInjectedConvConfig)
 *fill*         0x080005b0       0x10 
 .text.ADC_ExternalTrigInjectedConvConfig
                0x080005c0       0x4c /home/jon/dev_src/SEU-Detect-Correct/build/stm32f4xx_adc.o
                0x080005c0                ADC_ExternalTrigInjectedConvConfig
 *(.text.ADC_ExternalTrigInjectedConvEdgeConfig)
 *fill*         0x0800060c       0x14 
 .text.ADC_ExternalTrigInjectedConvEdgeConfig
                0x08000620       0x4c /home/jon/dev_src/SEU-Detect-Correct/build/stm32f4xx_adc.o
                0x08000620                ADC_ExternalTrigInjectedConvEdgeConfig
 *(.text.ADC_GetConversionValue)
 *fill*         0x0800066c       0x14 
 .text.ADC_GetConversionValue
                0x08000680       0x34 /home/jon/dev_src/SEU-Detect-Correct/build/stm32f4xx_adc.o
                0x08000680                ADC_GetConversionValue
 *(.text.ADC_GetFlagStatus)
 *fill*         0x080006b4        0xc 
 .text.ADC_GetFlagStatus
                0x080006c0       0x4c /home/jon/dev_src/SEU-Detect-Correct/build/stm32f4xx_adc.o
                0x080006c0                ADC_GetFlagStatus
 *(.text.ADC_GetInjectedConversionValue)
 *fill*         0x0800070c       0x14 
 .text.ADC_GetInjectedConversionValue
                0x08000720       0x48 /home/jon/dev_src/SEU-Detect-Correct/build/stm32f4xx_adc.o
                0x08000720                ADC_GetInjectedConversionValue
 *(.text.ADC_GetITStatus)
 *fill*         0x08000768       0x18 
 .text.ADC_GetITStatus
                0x08000780       0x74 /home/jon/dev_src/SEU-Detect-Correct/build/stm32f4xx_adc.o
                0x08000780                ADC_GetITStatus
 *(.text.ADC_GetMultiModeConversionValue)
 *fill*         0x080007f4        0xc 
 .text.ADC_GetMultiModeConversionValue
                0x08000800       0x2c /home/jon/dev_src/SEU-Detect-Correct/build/stm32f4xx_adc.o
                0x08000800                ADC_GetMultiModeConversionValue
 *(.text.ADC_GetSoftwareStartConvStatus)
 *fill*         0x0800082c       0x14 
 .text.ADC_GetSoftwareStartConvStatus
                0x08000840       0x48 /home/jon/dev_src/SEU-Detect-Correct/build/stm32f4xx_adc.o
                0x08000840                ADC_GetSoftwareStartConvStatus
 *(.text.ADC_GetSoftwareStartInjectedConvCmdStatus)
 *fill*         0x08000888       0x18 
 .text.ADC_GetSoftwareStartInjectedConvCmdStatus
                0x080008a0       0x48 /home/jon/dev_src/SEU-Detect-Correct/build/stm32f4xx_adc.o
                0x080008a0                ADC_GetSoftwareStartInjectedConvCmdStatus
 *(.text.ADC_Init)
 *fill*         0x080008e8       0x18 
 .text.ADC_Init
                0x08000900       0xc0 /home/jon/dev_src/SEU-Detect-Correct/build/stm32f4xx_adc.o
                0x08000900                ADC_Init
 *(.text.ADC_InjectedChannelConfig)
 .text.ADC_InjectedChannelConfig
                0x080009c0      0x138 /home/jon/dev_src/SEU-Detect-Correct/build/stm32f4xx_adc.o
                0x080009c0                ADC_InjectedChannelConfig
 *(.text.ADC_InjectedDiscModeCmd)
 *fill*         0x08000af8        0x8 
 .text.ADC_InjectedDiscModeCmd
                0x08000b00       0x50 /home/jon/dev_src/SEU-Detect-Correct/build/stm32f4xx_adc.o
                0x08000b00                ADC_InjectedDiscModeCmd
 *(.text.ADC_InjectedSequencerLengthConfig)
 *fill*         0x08000b50       0x10 
 .text.ADC_InjectedSequencerLengthConfig
                0x08000b60       0x5c /home/jon/dev_src/SEU-Detect-Correct/build/stm32f4xx_adc.o
                0x08000b60                ADC_InjectedSequencerLengthConfig
 *(.text.ADC_IRQHandler)
 *(.text.ADC_ITConfig)
 *fill*         0x08000bbc        0x4 
 .text.ADC_ITConfig
                0x08000bc0       0x68 /home/jon/dev_src/SEU-Detect-Correct/build/stm32f4xx_adc.o
                0x08000bc0                ADC_ITConfig
 *(.text.ADC_MultiModeDMARequestAfterLastTransferCmd)
 *fill*         0x08000c28       0x18 
 .text.ADC_MultiModeDMARequestAfterLastTransferCmd
                0x08000c40       0x50 /home/jon/dev_src/SEU-Detect-Correct/build/stm32f4xx_adc.o
                0x08000c40                ADC_MultiModeDMARequestAfterLastTransferCmd
 *(.text.ADC_RegularChannelConfig)
 *fill*         0x08000c90       0x10 
 .text.ADC_RegularChannelConfig
                0x08000ca0      0x1ac /home/jon/dev_src/SEU-Detect-Correct/build/stm32f4xx_adc.o
                0x08000ca0                ADC_RegularChannelConfig
 *(.text.ADC_SetInjectedOffset)
 *fill*         0x08000e4c       0x14 
 .text.ADC_SetInjectedOffset
                0x08000e60       0x4c /home/jon/dev_src/SEU-Detect-Correct/build/stm32f4xx_adc.o
                0x08000e60                ADC_SetInjectedOffset
 *(.text.ADC_SoftwareStartConv)
 *fill*         0x08000eac       0x14 
 .text.ADC_SoftwareStartConv
                0x08000ec0       0x38 /home/jon/dev_src/SEU-Detect-Correct/build/stm32f4xx_adc.o
                0x08000ec0                ADC_SoftwareStartConv
 *(.text.ADC_SoftwareStartInjectedConv)
 *fill*         0x08000ef8        0x8 
 .text.ADC_SoftwareStartInjectedConv
                0x08000f00       0x38 /home/jon/dev_src/SEU-Detect-Correct/build/stm32f4xx_adc.o
                0x08000f00                ADC_SoftwareStartInjectedConv
 *(.text.ADC_StructInit)
 *fill*         0x08000f38        0x8 
 .text.ADC_StructInit
                0x08000f40       0x54 /home/jon/dev_src/SEU-Detect-Correct/build/stm32f4xx_adc.o
                0x08000f40                ADC_StructInit
 *(.text.ADC_TempSensorVrefintCmd)
 *fill*         0x08000f94        0xc 
 .text.ADC_TempSensorVrefintCmd
                0x08000fa0       0x50 /home/jon/dev_src/SEU-Detect-Correct/build/stm32f4xx_adc.o
                0x08000fa0                ADC_TempSensorVrefintCmd
 *(.text.ADC_VBATCmd)
 *fill*         0x08000ff0       0x10 
 .text.ADC_VBATCmd
                0x08001000       0x50 /home/jon/dev_src/SEU-Detect-Correct/build/stm32f4xx_adc.o
                0x08001000                ADC_VBATCmd
 *(.text.BusFault_Handler)
 *(.text.CAN1_RX0_IRQHandler)
 *(.text.CAN1_RX1_IRQHandler)
 *(.text.CAN1_SCE_IRQHandler)
 *(.text.CAN1_TX_IRQHandler)
 *(.text.CAN2_RX0_IRQHandler)
 *(.text.CAN2_RX1_IRQHandler)
 *(.text.CAN2_SCE_IRQHandler)
 *(.text.CAN2_TX_IRQHandler)
 *(.text._cleanup)
 .text._cleanup
                0x08001050       0x14 /home/jon/gcc-arm-none-eabi-5_2-2015q4/arm-none-eabi/lib/armv7e-m/fpu/libc.a(lib_a-findfp.o)
                0x08001050                _cleanup
 *(.text.cleanup_glue)
 .text.cleanup_glue
                0x08001064       0x1c /home/jon/gcc-arm-none-eabi-5_2-2015q4/arm-none-eabi/lib/armv7e-m/fpu/libc.a(lib_a-reent.o)
                0x08001064                cleanup_glue
 *(.text._cleanup_r)
 .text._cleanup_r
                0x08001080        0xc /home/jon/gcc-arm-none-eabi-5_2-2015q4/arm-none-eabi/lib/armv7e-m/fpu/libc.a(lib_a-findfp.o)
                0x08001080                _cleanup_r
 *(.text._close)
 *fill*         0x0800108c       0x14 
 .text._close   0x080010a0       0x30 /home/jon/dev_src/SEU-Detect-Correct/build/syscalls.o
                0x080010a0                _close
 *(.text._close_r)
 .text._close_r
                0x080010d0       0x24 /home/jon/gcc-arm-none-eabi-5_2-2015q4/arm-none-eabi/lib/armv7e-m/fpu/libc.a(lib_a-closer.o)
                0x080010d0                _close_r
 *(.text.copysignf)
 .text.copysignf
                0x080010f4       0x18 /home/jon/gcc-arm-none-eabi-5_2-2015q4/arm-none-eabi/lib/armv7e-m/fpu/libm.a(lib_a-sf_copysign.o)
                0x080010f4                copysignf
 *(.text.CRYP_IRQHandler)
 *(.text.current_tick_count)
 *fill*         0x0800110c       0x14 
 .text.current_tick_count
                0x08001120       0x10 build/trace_functions.o
 *(.text.__cyg_profile_func_enter)
 *fill*         0x08001130       0x10 
 .text.__cyg_profile_func_enter
                0x08001140       0x78 build/trace_functions.o
                0x08001140                __cyg_profile_func_enter
 *(.text.__cyg_profile_func_exit)
 *fill*         0x080011b8        0x8 
 .text.__cyg_profile_func_exit
                0x080011c0       0x18 build/trace_functions.o
                0x080011c0                __cyg_profile_func_exit
 *(.text.DAC_ClearFlag)
 *fill*         0x080011d8        0x8 
 .text.DAC_ClearFlag
                0x080011e0       0x3c /home/jon/dev_src/SEU-Detect-Correct/build/stm32f4xx_dac.o
                0x080011e0                DAC_ClearFlag
 *(.text.DAC_ClearITPendingBit)
 *fill*         0x0800121c        0x4 
 .text.DAC_ClearITPendingBit
                0x08001220       0x3c /home/jon/dev_src/SEU-Detect-Correct/build/stm32f4xx_dac.o
                0x08001220                DAC_ClearITPendingBit
 *(.text.DAC_Cmd)
 *fill*         0x0800125c        0x4 
 .text.DAC_Cmd  0x08001260       0x60 /home/jon/dev_src/SEU-Detect-Correct/build/stm32f4xx_dac.o
                0x08001260                DAC_Cmd
 *(.text.DAC_DeInit)
 .text.DAC_DeInit
                0x080012c0       0x38 /home/jon/dev_src/SEU-Detect-Correct/build/stm32f4xx_dac.o
                0x080012c0                DAC_DeInit
 *(.text.DAC_DMACmd)
 *fill*         0x080012f8        0x8 
 .text.DAC_DMACmd
                0x08001300       0x64 /home/jon/dev_src/SEU-Detect-Correct/build/stm32f4xx_dac.o
                0x08001300                DAC_DMACmd
 *(.text.DAC_DualSoftwareTriggerCmd)
 *fill*         0x08001364       0x1c 
 .text.DAC_DualSoftwareTriggerCmd
                0x08001380       0x50 /home/jon/dev_src/SEU-Detect-Correct/build/stm32f4xx_dac.o
                0x08001380                DAC_DualSoftwareTriggerCmd
 *(.text.DAC_GetDataOutputValue)
 *fill*         0x080013d0       0x10 
 .text.DAC_GetDataOutputValue
                0x080013e0       0x4c /home/jon/dev_src/SEU-Detect-Correct/build/stm32f4xx_dac.o
                0x080013e0                DAC_GetDataOutputValue
 *(.text.DAC_GetFlagStatus)
 *fill*         0x0800142c       0x14 
 .text.DAC_GetFlagStatus
                0x08001440       0x54 /home/jon/dev_src/SEU-Detect-Correct/build/stm32f4xx_dac.o
                0x08001440                DAC_GetFlagStatus
 *(.text.DAC_GetITStatus)
 *fill*         0x08001494        0xc 
 .text.DAC_GetITStatus
                0x080014a0       0x70 /home/jon/dev_src/SEU-Detect-Correct/build/stm32f4xx_dac.o
                0x080014a0                DAC_GetITStatus
 *(.text.DAC_Init)
 *fill*         0x08001510       0x10 
 .text.DAC_Init
                0x08001520       0x7c /home/jon/dev_src/SEU-Detect-Correct/build/stm32f4xx_dac.o
                0x08001520                DAC_Init
 *(.text.DAC_ITConfig)
 *fill*         0x0800159c        0x4 
 .text.DAC_ITConfig
                0x080015a0       0x64 /home/jon/dev_src/SEU-Detect-Correct/build/stm32f4xx_dac.o
                0x080015a0                DAC_ITConfig
 *(.text.DAC_SetChannel1Data)
 *fill*         0x08001604       0x1c 
 .text.DAC_SetChannel1Data
                0x08001620       0x4c /home/jon/dev_src/SEU-Detect-Correct/build/stm32f4xx_dac.o
                0x08001620                DAC_SetChannel1Data
 *(.text.DAC_SetChannel2Data)
 *fill*         0x0800166c       0x14 
 .text.DAC_SetChannel2Data
                0x08001680       0x4c /home/jon/dev_src/SEU-Detect-Correct/build/stm32f4xx_dac.o
                0x08001680                DAC_SetChannel2Data
 *(.text.DAC_SetDualChannelData)
 *fill*         0x080016cc       0x14 
 .text.DAC_SetDualChannelData
                0x080016e0       0x70 /home/jon/dev_src/SEU-Detect-Correct/build/stm32f4xx_dac.o
                0x080016e0                DAC_SetDualChannelData
 *(.text.DAC_SoftwareTriggerCmd)
 *fill*         0x08001750       0x10 
 .text.DAC_SoftwareTriggerCmd
                0x08001760       0x64 /home/jon/dev_src/SEU-Detect-Correct/build/stm32f4xx_dac.o
                0x08001760                DAC_SoftwareTriggerCmd
 *(.text.DAC_StructInit)
 *fill*         0x080017c4       0x1c 
 .text.DAC_StructInit
                0x080017e0       0x44 /home/jon/dev_src/SEU-Detect-Correct/build/stm32f4xx_dac.o
                0x080017e0                DAC_StructInit
 *(.text.DAC_WaveGenerationCmd)
 *fill*         0x08001824       0x1c 
 .text.DAC_WaveGenerationCmd
                0x08001840       0x64 /home/jon/dev_src/SEU-Detect-Correct/build/stm32f4xx_dac.o
                0x08001840                DAC_WaveGenerationCmd
 *(.text.DCMI_IRQHandler)
 *(.text.DebugMon_Handler)
 *(.text.DMA1_Stream0_IRQHandler)
 *(.text.DMA1_Stream1_IRQHandler)
 *(.text.DMA1_Stream2_IRQHandler)
 *(.text.DMA1_Stream3_IRQHandler)
 *(.text.DMA1_Stream4_IRQHandler)
 *(.text.DMA1_Stream5_IRQHandler)
 *(.text.DMA1_Stream6_IRQHandler)
 *(.text.DMA1_Stream7_IRQHandler)
 *(.text.DMA2_Stream0_IRQHandler)
 *(.text.DMA2_Stream1_IRQHandler)
 *(.text.DMA2_Stream2_IRQHandler)
 *(.text.DMA2_Stream3_IRQHandler)
 *(.text.DMA2_Stream4_IRQHandler)
 *(.text.DMA2_Stream5_IRQHandler)
 *(.text.DMA2_Stream6_IRQHandler)
 *(.text.DMA2_Stream7_IRQHandler)
 *(.text.DMA_ClearFlag)
 *fill*         0x080018a4       0x1c 
 .text.DMA_ClearFlag
                0x080018c0       0x74 /home/jon/dev_src/SEU-Detect-Correct/build/stm32f4xx_dma.o
                0x080018c0                DMA_ClearFlag
 *(.text.DMA_ClearITPendingBit)
 *fill*         0x08001934        0xc 
 .text.DMA_ClearITPendingBit
                0x08001940       0x74 /home/jon/dev_src/SEU-Detect-Correct/build/stm32f4xx_dma.o
                0x08001940                DMA_ClearITPendingBit
 *(.text.DMA_Cmd)
 *fill*         0x080019b4        0xc 
 .text.DMA_Cmd  0x080019c0       0x50 /home/jon/dev_src/SEU-Detect-Correct/build/stm32f4xx_dma.o
                0x080019c0                DMA_Cmd
 *(.text.DMA_DeInit)
 *fill*         0x08001a10       0x10 
 .text.DMA_DeInit
                0x08001a20      0x1bc /home/jon/dev_src/SEU-Detect-Correct/build/stm32f4xx_dma.o
                0x08001a20                DMA_DeInit
 *(.text.DMA_DoubleBufferModeCmd)
 *fill*         0x08001bdc        0x4 
 .text.DMA_DoubleBufferModeCmd
                0x08001be0       0x50 /home/jon/dev_src/SEU-Detect-Correct/build/stm32f4xx_dma.o
                0x08001be0                DMA_DoubleBufferModeCmd
 *(.text.DMA_DoubleBufferModeConfig)
 *fill*         0x08001c30       0x10 
 .text.DMA_DoubleBufferModeConfig
                0x08001c40       0x54 /home/jon/dev_src/SEU-Detect-Correct/build/stm32f4xx_dma.o
                0x08001c40                DMA_DoubleBufferModeConfig
 *(.text.DMA_FlowControllerConfig)
 *fill*         0x08001c94        0xc 
 .text.DMA_FlowControllerConfig
                0x08001ca0       0x4c /home/jon/dev_src/SEU-Detect-Correct/build/stm32f4xx_dma.o
                0x08001ca0                DMA_FlowControllerConfig
 *(.text.DMA_GetCmdStatus)
 *fill*         0x08001cec       0x14 
 .text.DMA_GetCmdStatus
                0x08001d00       0x48 /home/jon/dev_src/SEU-Detect-Correct/build/stm32f4xx_dma.o
                0x08001d00                DMA_GetCmdStatus
 *(.text.DMA_GetCurrDataCounter)
 *fill*         0x08001d48       0x18 
 .text.DMA_GetCurrDataCounter
                0x08001d60       0x34 /home/jon/dev_src/SEU-Detect-Correct/build/stm32f4xx_dma.o
                0x08001d60                DMA_GetCurrDataCounter
 *(.text.DMA_GetCurrentMemoryTarget)
 *fill*         0x08001d94        0xc 
 .text.DMA_GetCurrentMemoryTarget
                0x08001da0       0x48 /home/jon/dev_src/SEU-Detect-Correct/build/stm32f4xx_dma.o
                0x08001da0                DMA_GetCurrentMemoryTarget
 *(.text.DMA_GetFIFOStatus)
 *fill*         0x08001de8       0x18 
 .text.DMA_GetFIFOStatus
                0x08001e00       0x3c /home/jon/dev_src/SEU-Detect-Correct/build/stm32f4xx_dma.o
                0x08001e00                DMA_GetFIFOStatus
 *(.text.DMA_GetFlagStatus)
 *fill*         0x08001e3c        0x4 
 .text.DMA_GetFlagStatus
                0x08001e40       0x90 /home/jon/dev_src/SEU-Detect-Correct/build/stm32f4xx_dma.o
                0x08001e40                DMA_GetFlagStatus
 *(.text.DMA_GetITStatus)
 *fill*         0x08001ed0       0x10 
 .text.DMA_GetITStatus
                0x08001ee0       0xc8 /home/jon/dev_src/SEU-Detect-Correct/build/stm32f4xx_dma.o
                0x08001ee0                DMA_GetITStatus
 *(.text.DMA_Init)
 *fill*         0x08001fa8       0x18 
 .text.DMA_Init
                0x08001fc0       0xc4 /home/jon/dev_src/SEU-Detect-Correct/build/stm32f4xx_dma.o
                0x08001fc0                DMA_Init
 *(.text.DMA_ITConfig)
 *fill*         0x08002084       0x1c 
 .text.DMA_ITConfig
                0x080020a0       0x8c /home/jon/dev_src/SEU-Detect-Correct/build/stm32f4xx_dma.o
                0x080020a0                DMA_ITConfig
 *(.text.DMA_MemoryTargetConfig)
 *fill*         0x0800212c       0x14 
 .text.DMA_MemoryTargetConfig
                0x08002140       0x44 /home/jon/dev_src/SEU-Detect-Correct/build/stm32f4xx_dma.o
                0x08002140                DMA_MemoryTargetConfig
 *(.text.DMA_PeriphIncOffsetSizeConfig)
 *fill*         0x08002184       0x1c 
 .text.DMA_PeriphIncOffsetSizeConfig
                0x080021a0       0x4c /home/jon/dev_src/SEU-Detect-Correct/build/stm32f4xx_dma.o
                0x080021a0                DMA_PeriphIncOffsetSizeConfig
 *(.text.DMA_SetCurrDataCounter)
 *fill*         0x080021ec       0x14 
 .text.DMA_SetCurrDataCounter
                0x08002200       0x34 /home/jon/dev_src/SEU-Detect-Correct/build/stm32f4xx_dma.o
                0x08002200                DMA_SetCurrDataCounter
 *(.text.DMA_StructInit)
 *fill*         0x08002234        0xc 
 .text.DMA_StructInit
                0x08002240       0x84 /home/jon/dev_src/SEU-Detect-Correct/build/stm32f4xx_dma.o
                0x08002240                DMA_StructInit
 *(.text.__errno)
 .text.__errno  0x080022c4        0xc /home/jon/gcc-arm-none-eabi-5_2-2015q4/arm-none-eabi/lib/armv7e-m/fpu/libc.a(lib_a-errno.o)
                0x080022c4                __errno
 *(.text.ETH_IRQHandler)
 *(.text.ETH_WKUP_IRQHandler)
 *(.text.EXTI0_IRQHandler)
 *(.text.EXTI15_10_IRQHandler)
 *(.text.EXTI1_IRQHandler)
 *(.text.EXTI2_IRQHandler)
 *(.text.EXTI3_IRQHandler)
 *(.text.EXTI4_IRQHandler)
 *(.text.EXTI9_5_IRQHandler)
 *(.text.EXTI_ClearFlag)
 *fill*         0x080022d0       0x10 
 .text.EXTI_ClearFlag
                0x080022e0       0x34 /home/jon/dev_src/SEU-Detect-Correct/build/stm32f4xx_exti.o
                0x080022e0                EXTI_ClearFlag
 *(.text.EXTI_ClearITPendingBit)
 *fill*         0x08002314        0xc 
 .text.EXTI_ClearITPendingBit
                0x08002320       0x34 /home/jon/dev_src/SEU-Detect-Correct/build/stm32f4xx_exti.o
                0x08002320                EXTI_ClearITPendingBit
 *(.text.EXTI_DeInit)
 *fill*         0x08002354        0xc 
 .text.EXTI_DeInit
                0x08002360       0x48 /home/jon/dev_src/SEU-Detect-Correct/build/stm32f4xx_exti.o
                0x08002360                EXTI_DeInit
 *(.text.EXTI_GenerateSWInterrupt)
 *fill*         0x080023a8       0x18 
 .text.EXTI_GenerateSWInterrupt
                0x080023c0       0x3c /home/jon/dev_src/SEU-Detect-Correct/build/stm32f4xx_exti.o
                0x080023c0                EXTI_GenerateSWInterrupt
 *(.text.EXTI_GetFlagStatus)
 *fill*         0x080023fc        0x4 
 .text.EXTI_GetFlagStatus
                0x08002400       0x4c /home/jon/dev_src/SEU-Detect-Correct/build/stm32f4xx_exti.o
                0x08002400                EXTI_GetFlagStatus
 *(.text.EXTI_GetITStatus)
 *fill*         0x0800244c       0x14 
 .text.EXTI_GetITStatus
                0x08002460       0x60 /home/jon/dev_src/SEU-Detect-Correct/build/stm32f4xx_exti.o
                0x08002460                EXTI_GetITStatus
 *(.text.EXTI_Init)
 .text.EXTI_Init
                0x080024c0       0xfc /home/jon/dev_src/SEU-Detect-Correct/build/stm32f4xx_exti.o
                0x080024c0                EXTI_Init
 *(.text.EXTI_StructInit)
 *fill*         0x080025bc        0x4 
 .text.EXTI_StructInit
                0x080025c0       0x44 /home/jon/dev_src/SEU-Detect-Correct/build/stm32f4xx_exti.o
                0x080025c0                EXTI_StructInit
 *(.text.fabsf)
 .text.fabsf    0x08002604       0x10 /home/jon/gcc-arm-none-eabi-5_2-2015q4/arm-none-eabi/lib/armv7e-m/fpu/libm.a(lib_a-sf_fabs.o)
                0x08002604                fabsf
 *(.text.fclose)
 .text.fclose   0x08002614       0x10 /home/jon/gcc-arm-none-eabi-5_2-2015q4/arm-none-eabi/lib/armv7e-m/fpu/libc.a(lib_a-fclose.o)
                0x08002614                fclose
 *(.text._fclose_r)
 .text._fclose_r
                0x08002624       0x84 /home/jon/gcc-arm-none-eabi-5_2-2015q4/arm-none-eabi/lib/armv7e-m/fpu/libc.a(lib_a-fclose.o)
                0x08002624                _fclose_r
 *(.text.fflush)
 .text.fflush   0x080026a8       0x24 /home/jon/gcc-arm-none-eabi-5_2-2015q4/arm-none-eabi/lib/armv7e-m/fpu/libc.a(lib_a-fflush.o)
                0x080026a8                fflush
 *(.text._fflush_r)
 .text._fflush_r
                0x080026cc       0x2c /home/jon/gcc-arm-none-eabi-5_2-2015q4/arm-none-eabi/lib/armv7e-m/fpu/libc.a(lib_a-fflush.o)
                0x080026cc                _fflush_r
 *(.text.FLASH_ClearFlag)
 *fill*         0x080026f8        0x8 
 .text.FLASH_ClearFlag
                0x08002700       0x34 /home/jon/dev_src/SEU-Detect-Correct/build/stm32f4xx_flash.o
                0x08002700                FLASH_ClearFlag
 *(.text.FLASH_DataCacheCmd)
 *fill*         0x08002734        0xc 
 .text.FLASH_DataCacheCmd
                0x08002740       0x50 /home/jon/dev_src/SEU-Detect-Correct/build/stm32f4xx_flash.o
                0x08002740                FLASH_DataCacheCmd
 *(.text.FLASH_DataCacheReset)
 *fill*         0x08002790       0x10 
 .text.FLASH_DataCacheReset
                0x080027a0       0x34 /home/jon/dev_src/SEU-Detect-Correct/build/stm32f4xx_flash.o
                0x080027a0                FLASH_DataCacheReset
 *(.text.FLASH_EraseAllSectors)
 *fill*         0x080027d4        0xc 
 .text.FLASH_EraseAllSectors
                0x080027e0       0xbc /home/jon/dev_src/SEU-Detect-Correct/build/stm32f4xx_flash.o
                0x080027e0                FLASH_EraseAllSectors
 *(.text.FLASH_EraseSector)
 *fill*         0x0800289c        0x4 
 .text.FLASH_EraseSector
                0x080028a0       0xdc /home/jon/dev_src/SEU-Detect-Correct/build/stm32f4xx_flash.o
                0x080028a0                FLASH_EraseSector
 *(.text.FLASH_GetFlagStatus)
 *fill*         0x0800297c        0x4 
 .text.FLASH_GetFlagStatus
                0x08002980       0x4c /home/jon/dev_src/SEU-Detect-Correct/build/stm32f4xx_flash.o
                0x08002980                FLASH_GetFlagStatus
 *(.text.FLASH_GetStatus)
 *fill*         0x080029cc       0x14 
 .text.FLASH_GetStatus
                0x080029e0       0x80 /home/jon/dev_src/SEU-Detect-Correct/build/stm32f4xx_flash.o
                0x080029e0                FLASH_GetStatus
 *(.text.FLASH_InstructionCacheCmd)
 .text.FLASH_InstructionCacheCmd
                0x08002a60       0x50 /home/jon/dev_src/SEU-Detect-Correct/build/stm32f4xx_flash.o
                0x08002a60                FLASH_InstructionCacheCmd
 *(.text.FLASH_InstructionCacheReset)
 *fill*         0x08002ab0       0x10 
 .text.FLASH_InstructionCacheReset
                0x08002ac0       0x34 /home/jon/dev_src/SEU-Detect-Correct/build/stm32f4xx_flash.o
                0x08002ac0                FLASH_InstructionCacheReset
 *(.text.FLASH_IRQHandler)
 *(.text.FLASH_ITConfig)
 *fill*         0x08002af4        0xc 
 .text.FLASH_ITConfig
                0x08002b00       0x54 /home/jon/dev_src/SEU-Detect-Correct/build/stm32f4xx_flash.o
                0x08002b00                FLASH_ITConfig
 *(.text.FLASH_Lock)
 *fill*         0x08002b54        0xc 
 .text.FLASH_Lock
                0x08002b60       0x34 /home/jon/dev_src/SEU-Detect-Correct/build/stm32f4xx_flash.o
                0x08002b60                FLASH_Lock
 *(.text.FLASH_OB_BORConfig)
 *fill*         0x08002b94        0xc 
 .text.FLASH_OB_BORConfig
                0x08002ba0       0x50 /home/jon/dev_src/SEU-Detect-Correct/build/stm32f4xx_flash.o
                0x08002ba0                FLASH_OB_BORConfig
 *(.text.FLASH_OB_GetBOR)
 *fill*         0x08002bf0       0x10 
 .text.FLASH_OB_GetBOR
                0x08002c00       0x34 /home/jon/dev_src/SEU-Detect-Correct/build/stm32f4xx_flash.o
                0x08002c00                FLASH_OB_GetBOR
 *(.text.FLASH_OB_GetRDP)
 *fill*         0x08002c34        0xc 
 .text.FLASH_OB_GetRDP
                0x08002c40       0x48 /home/jon/dev_src/SEU-Detect-Correct/build/stm32f4xx_flash.o
                0x08002c40                FLASH_OB_GetRDP
 *(.text.FLASH_OB_GetUser)
 *fill*         0x08002c88       0x18 
 .text.FLASH_OB_GetUser
                0x08002ca0       0x30 /home/jon/dev_src/SEU-Detect-Correct/build/stm32f4xx_flash.o
                0x08002ca0                FLASH_OB_GetUser
 *(.text.FLASH_OB_GetWRP)
 *fill*         0x08002cd0       0x10 
 .text.FLASH_OB_GetWRP
                0x08002ce0       0x30 /home/jon/dev_src/SEU-Detect-Correct/build/stm32f4xx_flash.o
                0x08002ce0                FLASH_OB_GetWRP
 *(.text.FLASH_OB_Launch)
 *fill*         0x08002d10       0x10 
 .text.FLASH_OB_Launch
                0x08002d20       0x4c /home/jon/dev_src/SEU-Detect-Correct/build/stm32f4xx_flash.o
                0x08002d20                FLASH_OB_Launch
 *(.text.FLASH_OB_Lock)
 *fill*         0x08002d6c       0x14 
 .text.FLASH_OB_Lock
                0x08002d80       0x34 /home/jon/dev_src/SEU-Detect-Correct/build/stm32f4xx_flash.o
                0x08002d80                FLASH_OB_Lock
 *(.text.FLASH_OB_RDPConfig)
 *fill*         0x08002db4        0xc 
 .text.FLASH_OB_RDPConfig
                0x08002dc0       0x48 /home/jon/dev_src/SEU-Detect-Correct/build/stm32f4xx_flash.o
                0x08002dc0                FLASH_OB_RDPConfig
 *(.text.FLASH_OB_Unlock)
 *fill*         0x08002e08       0x18 
 .text.FLASH_OB_Unlock
                0x08002e20       0x48 /home/jon/dev_src/SEU-Detect-Correct/build/stm32f4xx_flash.o
                0x08002e20                FLASH_OB_Unlock
 *(.text.FLASH_OB_UserConfig)
 *fill*         0x08002e68       0x18 
 .text.FLASH_OB_UserConfig
                0x08002e80       0x74 /home/jon/dev_src/SEU-Detect-Correct/build/stm32f4xx_flash.o
                0x08002e80                FLASH_OB_UserConfig
 *(.text.FLASH_OB_WRPConfig)
 *fill*         0x08002ef4        0xc 
 .text.FLASH_OB_WRPConfig
                0x08002f00       0x78 /home/jon/dev_src/SEU-Detect-Correct/build/stm32f4xx_flash.o
                0x08002f00                FLASH_OB_WRPConfig
 *(.text.FLASH_PrefetchBufferCmd)
 *fill*         0x08002f78        0x8 
 .text.FLASH_PrefetchBufferCmd
                0x08002f80       0x50 /home/jon/dev_src/SEU-Detect-Correct/build/stm32f4xx_flash.o
                0x08002f80                FLASH_PrefetchBufferCmd
 *(.text.FLASH_ProgramByte)
 *fill*         0x08002fd0       0x10 
 .text.FLASH_ProgramByte
                0x08002fe0       0x84 /home/jon/dev_src/SEU-Detect-Correct/build/stm32f4xx_flash.o
                0x08002fe0                FLASH_ProgramByte
 *(.text.FLASH_ProgramDoubleWord)
 *fill*         0x08003064       0x1c 
 .text.FLASH_ProgramDoubleWord
                0x08003080       0x8c /home/jon/dev_src/SEU-Detect-Correct/build/stm32f4xx_flash.o
                0x08003080                FLASH_ProgramDoubleWord
 *(.text.FLASH_ProgramHalfWord)
 *fill*         0x0800310c       0x14 
 .text.FLASH_ProgramHalfWord
                0x08003120       0x88 /home/jon/dev_src/SEU-Detect-Correct/build/stm32f4xx_flash.o
                0x08003120                FLASH_ProgramHalfWord
 *(.text.FLASH_ProgramWord)
 *fill*         0x080031a8       0x18 
 .text.FLASH_ProgramWord
                0x080031c0       0x84 /home/jon/dev_src/SEU-Detect-Correct/build/stm32f4xx_flash.o
                0x080031c0                FLASH_ProgramWord
 *(.text.FLASH_SetLatency)
 *fill*         0x08003244       0x1c 
 .text.FLASH_SetLatency
                0x08003260       0x38 /home/jon/dev_src/SEU-Detect-Correct/build/stm32f4xx_flash.o
                0x08003260                FLASH_SetLatency
 *(.text.FLASH_Unlock)
 *fill*         0x08003298        0x8 
 .text.FLASH_Unlock
                0x080032a0       0x44 /home/jon/dev_src/SEU-Detect-Correct/build/stm32f4xx_flash.o
                0x080032a0                FLASH_Unlock
 *(.text.FLASH_WaitForLastOperation)
 *fill*         0x080032e4       0x1c 
 .text.FLASH_WaitForLastOperation
                0x08003300       0x4c /home/jon/dev_src/SEU-Detect-Correct/build/stm32f4xx_flash.o
                0x08003300                FLASH_WaitForLastOperation
 *(.text.floorf)
 .text.floorf   0x0800334c       0x90 /home/jon/gcc-arm-none-eabi-5_2-2015q4/arm-none-eabi/lib/armv7e-m/fpu/libm.a(lib_a-sf_floor.o)
                0x0800334c                floorf
 *(.text.__fp_lock)
 .text.__fp_lock
                0x080033dc        0x4 /home/jon/gcc-arm-none-eabi-5_2-2015q4/arm-none-eabi/lib/armv7e-m/fpu/libc.a(lib_a-findfp.o)
 *(.text.__fp_lock_all)
 .text.__fp_lock_all
                0x080033e0       0x14 /home/jon/gcc-arm-none-eabi-5_2-2015q4/arm-none-eabi/lib/armv7e-m/fpu/libc.a(lib_a-findfp.o)
                0x080033e0                __fp_lock_all
 *(.text.FPU_IRQHandler)
 *(.text.__fp_unlock)
 .text.__fp_unlock
                0x080033f4        0x4 /home/jon/gcc-arm-none-eabi-5_2-2015q4/arm-none-eabi/lib/armv7e-m/fpu/libc.a(lib_a-findfp.o)
 *(.text.__fp_unlock_all)
 .text.__fp_unlock_all
                0x080033f8       0x14 /home/jon/gcc-arm-none-eabi-5_2-2015q4/arm-none-eabi/lib/armv7e-m/fpu/libc.a(lib_a-findfp.o)
                0x080033f8                __fp_unlock_all
 *(.text._free_r)
 .text._free_r  0x0800340c      0x1d0 /home/jon/gcc-arm-none-eabi-5_2-2015q4/arm-none-eabi/lib/armv7e-m/fpu/libc.a(lib_a-freer.o)
                0x0800340c                _free_r
 *(.text.FSMC_IRQHandler)

.text1          0x08004000     0x3128
                0x08004000                . = ALIGN (0x4)
 *(.flash1hdr.FlashHeader1)
 *(.flash1func.section1_profile_func_enter)
 *(.text._fstat)
 .text._fstat   0x08004000       0x44 /home/jon/dev_src/SEU-Detect-Correct/build/syscalls.o
                0x08004000                _fstat
 *(.text._fstat_r)
 .text._fstat_r
                0x08004044       0x28 /home/jon/gcc-arm-none-eabi-5_2-2015q4/arm-none-eabi/lib/armv7e-m/fpu/libc.a(lib_a-fstatr.o)
                0x08004044                _fstat_r
 *(.text._fwalk)
 .text._fwalk   0x0800406c       0x4c /home/jon/gcc-arm-none-eabi-5_2-2015q4/arm-none-eabi/lib/armv7e-m/fpu/libc.a(lib_a-fwalk.o)
                0x0800406c                _fwalk
 *(.text._fwalk_reent)
 .text._fwalk_reent
                0x080040b8       0x54 /home/jon/gcc-arm-none-eabi-5_2-2015q4/arm-none-eabi/lib/armv7e-m/fpu/libc.a(lib_a-fwalk.o)
                0x080040b8                _fwalk_reent
 *(.text._getpid)
 *fill*         0x0800410c       0x14 
 .text._getpid  0x08004120       0x28 /home/jon/dev_src/SEU-Detect-Correct/build/syscalls.o
                0x08004120                _getpid
 *(.text.GPIO_DeInit)
 *fill*         0x08004148       0x18 
 .text.GPIO_DeInit
                0x08004160      0x13c /home/jon/dev_src/SEU-Detect-Correct/build/stm32f4xx_gpio.o
                0x08004160                GPIO_DeInit
 *(.text.GPIO_Init)
 *fill*         0x0800429c        0x4 
 .text.GPIO_Init
                0x080042a0      0x134 /home/jon/dev_src/SEU-Detect-Correct/build/stm32f4xx_gpio.o
                0x080042a0                GPIO_Init
 *(.text.GPIO_PinAFConfig)
 *fill*         0x080043d4        0xc 
 .text.GPIO_PinAFConfig
                0x080043e0       0xa8 /home/jon/dev_src/SEU-Detect-Correct/build/stm32f4xx_gpio.o
                0x080043e0                GPIO_PinAFConfig
 *(.text.GPIO_PinLockConfig)
 *fill*         0x08004488       0x18 
 .text.GPIO_PinLockConfig
                0x080044a0       0x5c /home/jon/dev_src/SEU-Detect-Correct/build/stm32f4xx_gpio.o
                0x080044a0                GPIO_PinLockConfig
 *(.text.GPIO_ReadInputData)
 *fill*         0x080044fc        0x4 
 .text.GPIO_ReadInputData
                0x08004500       0x34 /home/jon/dev_src/SEU-Detect-Correct/build/stm32f4xx_gpio.o
                0x08004500                GPIO_ReadInputData
 *(.text.GPIO_ReadInputDataBit)
 *fill*         0x08004534        0xc 
 .text.GPIO_ReadInputDataBit
                0x08004540       0x4c /home/jon/dev_src/SEU-Detect-Correct/build/stm32f4xx_gpio.o
                0x08004540                GPIO_ReadInputDataBit
 *(.text.GPIO_ReadOutputData)
 *fill*         0x0800458c       0x14 
 .text.GPIO_ReadOutputData
                0x080045a0       0x34 /home/jon/dev_src/SEU-Detect-Correct/build/stm32f4xx_gpio.o
                0x080045a0                GPIO_ReadOutputData
 *(.text.GPIO_ReadOutputDataBit)
 *fill*         0x080045d4        0xc 
 .text.GPIO_ReadOutputDataBit
                0x080045e0       0x4c /home/jon/dev_src/SEU-Detect-Correct/build/stm32f4xx_gpio.o
                0x080045e0                GPIO_ReadOutputDataBit
 *(.text.GPIO_ResetBits)
 *fill*         0x0800462c       0x14 
 .text.GPIO_ResetBits
                0x08004640       0x34 /home/jon/dev_src/SEU-Detect-Correct/build/stm32f4xx_gpio.o
                0x08004640                GPIO_ResetBits
 *(.text.GPIO_SetBits)
 *fill*         0x08004674        0xc 
 .text.GPIO_SetBits
                0x08004680       0x34 /home/jon/dev_src/SEU-Detect-Correct/build/stm32f4xx_gpio.o
                0x08004680                GPIO_SetBits
 *(.text.GPIO_StructInit)
 *fill*         0x080046b4        0xc 
 .text.GPIO_StructInit
                0x080046c0       0x4c /home/jon/dev_src/SEU-Detect-Correct/build/stm32f4xx_gpio.o
                0x080046c0                GPIO_StructInit
 *(.text.GPIO_ToggleBits)
 *fill*         0x0800470c       0x14 
 .text.GPIO_ToggleBits
                0x08004720       0x3c /home/jon/dev_src/SEU-Detect-Correct/build/stm32f4xx_gpio.o
                0x08004720                GPIO_ToggleBits
 *(.text.GPIO_Write)
 *fill*         0x0800475c        0x4 
 .text.GPIO_Write
                0x08004760       0x34 /home/jon/dev_src/SEU-Detect-Correct/build/stm32f4xx_gpio.o
                0x08004760                GPIO_Write
 *(.text.GPIO_WriteBit)
 *fill*         0x08004794        0xc 
 .text.GPIO_WriteBit
                0x080047a0       0x48 /home/jon/dev_src/SEU-Detect-Correct/build/stm32f4xx_gpio.o
                0x080047a0                GPIO_WriteBit
 *(.text.HardFault_Handler)
 *(.text.HASH_RNG_IRQHandler)
 *(.text.I2C1_ER_IRQHandler)
 *(.text.I2C1_EV_IRQHandler)
 *(.text.I2C2_ER_IRQHandler)
 *(.text.I2C2_EV_IRQHandler)
 *(.text.I2C3_ER_IRQHandler)
 *(.text.I2C3_EV_IRQHandler)
 *(.text.I2C_AcknowledgeConfig)
 *fill*         0x080047e8       0x18 
 .text.I2C_AcknowledgeConfig
                0x08004800       0x58 /home/jon/dev_src/SEU-Detect-Correct/build/stm32f4xx_i2c.o
                0x08004800                I2C_AcknowledgeConfig
 *(.text.I2C_ARPCmd)
 *fill*         0x08004858        0x8 
 .text.I2C_ARPCmd
                0x08004860       0x58 /home/jon/dev_src/SEU-Detect-Correct/build/stm32f4xx_i2c.o
                0x08004860                I2C_ARPCmd
 *(.text.I2C_CalculatePEC)
 *fill*         0x080048b8        0x8 
 .text.I2C_CalculatePEC
                0x080048c0       0x58 /home/jon/dev_src/SEU-Detect-Correct/build/stm32f4xx_i2c.o
                0x080048c0                I2C_CalculatePEC
 *(.text.I2C_CheckEvent)
 *fill*         0x08004918        0x8 
 .text.I2C_CheckEvent
                0x08004920       0x78 /home/jon/dev_src/SEU-Detect-Correct/build/stm32f4xx_i2c.o
                0x08004920                I2C_CheckEvent
 *(.text.I2C_ClearFlag)
 *fill*         0x08004998        0x8 
 .text.I2C_ClearFlag
                0x080049a0       0x44 /home/jon/dev_src/SEU-Detect-Correct/build/stm32f4xx_i2c.o
                0x080049a0                I2C_ClearFlag
 *(.text.I2C_ClearITPendingBit)
 *fill*         0x080049e4       0x1c 
 .text.I2C_ClearITPendingBit
                0x08004a00       0x44 /home/jon/dev_src/SEU-Detect-Correct/build/stm32f4xx_i2c.o
                0x08004a00                I2C_ClearITPendingBit
 *(.text.I2C_Cmd)
 *fill*         0x08004a44       0x1c 
 .text.I2C_Cmd  0x08004a60       0x58 /home/jon/dev_src/SEU-Detect-Correct/build/stm32f4xx_i2c.o
                0x08004a60                I2C_Cmd
 *(.text.I2C_DeInit)
 *fill*         0x08004ab8        0x8 
 .text.I2C_DeInit
                0x08004ac0       0x90 /home/jon/dev_src/SEU-Detect-Correct/build/stm32f4xx_i2c.o
                0x08004ac0                I2C_DeInit
 *(.text.I2C_DMACmd)
 *fill*         0x08004b50       0x10 
 .text.I2C_DMACmd
                0x08004b60       0x58 /home/jon/dev_src/SEU-Detect-Correct/build/stm32f4xx_i2c.o
                0x08004b60                I2C_DMACmd
 *(.text.I2C_DMALastTransferCmd)
 *fill*         0x08004bb8        0x8 
 .text.I2C_DMALastTransferCmd
                0x08004bc0       0x58 /home/jon/dev_src/SEU-Detect-Correct/build/stm32f4xx_i2c.o
                0x08004bc0                I2C_DMALastTransferCmd
 *(.text.I2C_DualAddressCmd)
 *fill*         0x08004c18        0x8 
 .text.I2C_DualAddressCmd
                0x08004c20       0x58 /home/jon/dev_src/SEU-Detect-Correct/build/stm32f4xx_i2c.o
                0x08004c20                I2C_DualAddressCmd
 *(.text.I2C_FastModeDutyCycleConfig)
 *fill*         0x08004c78        0x8 
 .text.I2C_FastModeDutyCycleConfig
                0x08004c80       0x58 /home/jon/dev_src/SEU-Detect-Correct/build/stm32f4xx_i2c.o
                0x08004c80                I2C_FastModeDutyCycleConfig
 *(.text.I2C_GeneralCallCmd)
 *fill*         0x08004cd8        0x8 
 .text.I2C_GeneralCallCmd
                0x08004ce0       0x58 /home/jon/dev_src/SEU-Detect-Correct/build/stm32f4xx_i2c.o
                0x08004ce0                I2C_GeneralCallCmd
 *(.text.I2C_GenerateSTART)
 *fill*         0x08004d38        0x8 
 .text.I2C_GenerateSTART
                0x08004d40       0x58 /home/jon/dev_src/SEU-Detect-Correct/build/stm32f4xx_i2c.o
                0x08004d40                I2C_GenerateSTART
 *(.text.I2C_GenerateSTOP)
 *fill*         0x08004d98        0x8 
 .text.I2C_GenerateSTOP
                0x08004da0       0x58 /home/jon/dev_src/SEU-Detect-Correct/build/stm32f4xx_i2c.o
                0x08004da0                I2C_GenerateSTOP
 *(.text.I2C_GetFlagStatus)
 *fill*         0x08004df8        0x8 
 .text.I2C_GetFlagStatus
                0x08004e00       0x80 /home/jon/dev_src/SEU-Detect-Correct/build/stm32f4xx_i2c.o
                0x08004e00                I2C_GetFlagStatus
 *(.text.I2C_GetITStatus)
 .text.I2C_GetITStatus
                0x08004e80       0x74 /home/jon/dev_src/SEU-Detect-Correct/build/stm32f4xx_i2c.o
                0x08004e80                I2C_GetITStatus
 *(.text.I2C_GetLastEvent)
 *fill*         0x08004ef4        0xc 
 .text.I2C_GetLastEvent
                0x08004f00       0x5c /home/jon/dev_src/SEU-Detect-Correct/build/stm32f4xx_i2c.o
                0x08004f00                I2C_GetLastEvent
 *(.text.I2C_GetPEC)
 *fill*         0x08004f5c        0x4 
 .text.I2C_GetPEC
                0x08004f60       0x38 /home/jon/dev_src/SEU-Detect-Correct/build/stm32f4xx_i2c.o
                0x08004f60                I2C_GetPEC
 *(.text.I2C_Init)
 *fill*         0x08004f98        0x8 
 .text.I2C_Init
                0x08004fa0      0x1a0 /home/jon/dev_src/SEU-Detect-Correct/build/stm32f4xx_i2c.o
                0x08004fa0                I2C_Init
 *(.text.I2C_ITConfig)
 .text.I2C_ITConfig
                0x08005140       0x60 /home/jon/dev_src/SEU-Detect-Correct/build/stm32f4xx_i2c.o
                0x08005140                I2C_ITConfig
 *(.text.I2C_NACKPositionConfig)
 .text.I2C_NACKPositionConfig
                0x080051a0       0x58 /home/jon/dev_src/SEU-Detect-Correct/build/stm32f4xx_i2c.o
                0x080051a0                I2C_NACKPositionConfig
 *(.text.I2C_OwnAddress2Config)
 *fill*         0x080051f8        0x8 
 .text.I2C_OwnAddress2Config
                0x08005200       0x58 /home/jon/dev_src/SEU-Detect-Correct/build/stm32f4xx_i2c.o
                0x08005200                I2C_OwnAddress2Config
 *(.text.I2C_PECPositionConfig)
 *fill*         0x08005258        0x8 
 .text.I2C_PECPositionConfig
                0x08005260       0x58 /home/jon/dev_src/SEU-Detect-Correct/build/stm32f4xx_i2c.o
                0x08005260                I2C_PECPositionConfig
 *(.text.I2C_ReadRegister)
 *fill*         0x080052b8        0x8 
 .text.I2C_ReadRegister
                0x080052c0       0x48 /home/jon/dev_src/SEU-Detect-Correct/build/stm32f4xx_i2c.o
                0x080052c0                I2C_ReadRegister
 *(.text.I2C_ReceiveData)
 *fill*         0x08005308       0x18 
 .text.I2C_ReceiveData
                0x08005320       0x34 /home/jon/dev_src/SEU-Detect-Correct/build/stm32f4xx_i2c.o
                0x08005320                I2C_ReceiveData
 *(.text.I2C_Send7bitAddress)
 *fill*         0x08005354        0xc 
 .text.I2C_Send7bitAddress
                0x08005360       0x54 /home/jon/dev_src/SEU-Detect-Correct/build/stm32f4xx_i2c.o
                0x08005360                I2C_Send7bitAddress
 *(.text.I2C_SendData)
 *fill*         0x080053b4        0xc 
 .text.I2C_SendData
                0x080053c0       0x38 /home/jon/dev_src/SEU-Detect-Correct/build/stm32f4xx_i2c.o
                0x080053c0                I2C_SendData
 *(.text.I2C_SMBusAlertConfig)
 *fill*         0x080053f8        0x8 
 .text.I2C_SMBusAlertConfig
                0x08005400       0x58 /home/jon/dev_src/SEU-Detect-Correct/build/stm32f4xx_i2c.o
                0x08005400                I2C_SMBusAlertConfig
 *(.text.I2C_SoftwareResetCmd)
 *fill*         0x08005458        0x8 
 .text.I2C_SoftwareResetCmd
                0x08005460       0x5c /home/jon/dev_src/SEU-Detect-Correct/build/stm32f4xx_i2c.o
                0x08005460                I2C_SoftwareResetCmd
 *(.text.I2C_StretchClockCmd)
 *fill*         0x080054bc        0x4 
 .text.I2C_StretchClockCmd
                0x080054c0       0x58 /home/jon/dev_src/SEU-Detect-Correct/build/stm32f4xx_i2c.o
                0x080054c0                I2C_StretchClockCmd
 *(.text.I2C_StructInit)
 *fill*         0x08005518        0x8 
 .text.I2C_StructInit
                0x08005520       0x54 /home/jon/dev_src/SEU-Detect-Correct/build/stm32f4xx_i2c.o
                0x08005520                I2C_StructInit
 *(.text.I2C_TransmitPEC)
 *fill*         0x08005574        0xc 
 .text.I2C_TransmitPEC
                0x08005580       0x58 /home/jon/dev_src/SEU-Detect-Correct/build/stm32f4xx_i2c.o
                0x08005580                I2C_TransmitPEC
 *(.text.I2S_Cmd)
 *fill*         0x080055d8        0x8 
 .text.I2S_Cmd  0x080055e0       0x58 /home/jon/dev_src/SEU-Detect-Correct/build/stm32f4xx_spi.o
                0x080055e0                I2S_Cmd
 *(.text.I2S_FullDuplexConfig)
 *fill*         0x08005638        0x8 
 .text.I2S_FullDuplexConfig
                0x08005640       0xb4 /home/jon/dev_src/SEU-Detect-Correct/build/stm32f4xx_spi.o
                0x08005640                I2S_FullDuplexConfig
 *(.text.I2S_Init)
 *fill*         0x080056f4        0xc 
 .text.I2S_Init
                0x08005700      0x1cc /home/jon/dev_src/SEU-Detect-Correct/build/stm32f4xx_spi.o
                0x08005700                I2S_Init
 *(.text.I2S_StructInit)
 *fill*         0x080058cc       0x14 
 .text.I2S_StructInit
                0x080058e0       0x50 /home/jon/dev_src/SEU-Detect-Correct/build/stm32f4xx_spi.o
                0x080058e0                I2S_StructInit
 *(.text.__ieee754_rem_pio2f)
 .text.__ieee754_rem_pio2f
                0x08005930      0x298 /home/jon/gcc-arm-none-eabi-5_2-2015q4/arm-none-eabi/lib/armv7e-m/fpu/libm.a(lib_a-ef_rem_pio2.o)
                0x08005930                __ieee754_rem_pio2f
 *(.text.init_USART3)
 *fill*         0x08005bc8       0x18 
 .text.init_USART3
                0x08005be0       0xa4 /home/jon/dev_src/SEU-Detect-Correct/build/main.o
                0x08005be0                init_USART3
 *(.text._isatty)
 *fill*         0x08005c84       0x1c 
 .text._isatty  0x08005ca0       0x30 /home/jon/dev_src/SEU-Detect-Correct/build/syscalls.o
                0x08005ca0                _isatty
 *(.text._isatty_r)
 .text._isatty_r
                0x08005cd0       0x24 /home/jon/gcc-arm-none-eabi-5_2-2015q4/arm-none-eabi/lib/armv7e-m/fpu/libc.a(lib_a-isattyr.o)
                0x08005cd0                _isatty_r
 *(.text.__kernel_cosf)
 .text.__kernel_cosf
                0x08005cf4      0x104 /home/jon/gcc-arm-none-eabi-5_2-2015q4/arm-none-eabi/lib/armv7e-m/fpu/libm.a(lib_a-kf_cos.o)
                0x08005cf4                __kernel_cosf
 *(.text.__kernel_rem_pio2f)
 .text.__kernel_rem_pio2f
                0x08005df8      0x628 /home/jon/gcc-arm-none-eabi-5_2-2015q4/arm-none-eabi/lib/armv7e-m/fpu/libm.a(lib_a-kf_rem_pio2.o)
                0x08005df8                __kernel_rem_pio2f
 *(.text.__kernel_sinf)
 .text.__kernel_sinf
                0x08006420       0x90 /home/jon/gcc-arm-none-eabi-5_2-2015q4/arm-none-eabi/lib/armv7e-m/fpu/libm.a(lib_a-kf_sin.o)
                0x08006420                __kernel_sinf
 *(.text._kill)
 *fill*         0x080064b0       0x10 
 .text._kill    0x080064c0       0x3c /home/jon/dev_src/SEU-Detect-Correct/build/syscalls.o
                0x080064c0                _kill
 *(.text._lseek)
 *fill*         0x080064fc        0x4 
 .text._lseek   0x08006500       0x34 /home/jon/dev_src/SEU-Detect-Correct/build/syscalls.o
                0x08006500                _lseek
 *(.text._lseek_r)
 .text._lseek_r
                0x08006534       0x2c /home/jon/gcc-arm-none-eabi-5_2-2015q4/arm-none-eabi/lib/armv7e-m/fpu/libc.a(lib_a-lseekr.o)
                0x08006534                _lseek_r
 *(.text.main)
 .text.main     0x08006560       0x70 /home/jon/dev_src/SEU-Detect-Correct/build/main.o
                0x08006560                main
 *(.text.__malloc_lock)
 .text.__malloc_lock
                0x080065d0        0x4 /home/jon/gcc-arm-none-eabi-5_2-2015q4/arm-none-eabi/lib/armv7e-m/fpu/libc.a(lib_a-mlock.o)
                0x080065d0                __malloc_lock
 *(.text._malloc_r)
 .text._malloc_r
                0x080065d4      0x570 /home/jon/gcc-arm-none-eabi-5_2-2015q4/arm-none-eabi/lib/armv7e-m/fpu/libc.a(lib_a-mallocr.o)
                0x080065d4                _malloc_r
 *(.text._malloc_trim_r)
 .text._malloc_trim_r
                0x08006b44       0x9c /home/jon/gcc-arm-none-eabi-5_2-2015q4/arm-none-eabi/lib/armv7e-m/fpu/libc.a(lib_a-freer.o)
                0x08006b44                _malloc_trim_r
 *(.text.__malloc_unlock)
 .text.__malloc_unlock
                0x08006be0        0x4 /home/jon/gcc-arm-none-eabi-5_2-2015q4/arm-none-eabi/lib/armv7e-m/fpu/libc.a(lib_a-mlock.o)
                0x08006be0                __malloc_unlock
 *(.text.memchr)
 *(.text.memcmp)
 .text.memcmp   0x08006be4       0x64 /home/jon/gcc-arm-none-eabi-5_2-2015q4/arm-none-eabi/lib/armv7e-m/fpu/libc.a(lib_a-memcmp.o)
                0x08006be4                memcmp
 *(.text.memcpy)
 *(.text.MemManage_Handler)
 *(.text.memmove)
 .text.memmove  0x08006c48       0xc8 /home/jon/gcc-arm-none-eabi-5_2-2015q4/arm-none-eabi/lib/armv7e-m/fpu/libc.a(lib_a-memmove.o)
                0x08006c48                memmove
 *(.text.memset)
 .text.memset   0x08006d10       0x9c /home/jon/gcc-arm-none-eabi-5_2-2015q4/arm-none-eabi/lib/armv7e-m/fpu/libc.a(lib_a-memset.o)
                0x08006d10                memset
 *(.text.NMI_Handler)
 *(.text.NVIC_Init)
 *fill*         0x08006dac       0x14 
 .text.NVIC_Init
                0x08006dc0       0xd8 /home/jon/dev_src/SEU-Detect-Correct/build/misc.o
                0x08006dc0                NVIC_Init
 *(.text.NVIC_PriorityGroupConfig)
 *fill*         0x08006e98        0x8 
 .text.NVIC_PriorityGroupConfig
                0x08006ea0       0x3c /home/jon/dev_src/SEU-Detect-Correct/build/misc.o
                0x08006ea0                NVIC_PriorityGroupConfig
 *(.text.NVIC_SetVectorTable)
 *fill*         0x08006edc        0x4 
 .text.NVIC_SetVectorTable
                0x08006ee0       0x44 /home/jon/dev_src/SEU-Detect-Correct/build/misc.o
                0x08006ee0                NVIC_SetVectorTable
 *(.text.NVIC_SystemLPConfig)
 *fill*         0x08006f24       0x1c 
 .text.NVIC_SystemLPConfig
                0x08006f40       0x58 /home/jon/dev_src/SEU-Detect-Correct/build/misc.o
                0x08006f40                NVIC_SystemLPConfig
 *(.text._open)
 *fill*         0x08006f98        0x8 
 .text._open    0x08006fa0       0x34 /home/jon/dev_src/SEU-Detect-Correct/build/syscalls.o
                0x08006fa0                _open
 *(.text.OTG_FS_IRQHandler)
 *(.text.OTG_FS_WKUP_IRQHandler)
 *(.text.OTG_HS_EP1_IN_IRQHandler)
 *(.text.OTG_HS_EP1_OUT_IRQHandler)
 *(.text.OTG_HS_IRQHandler)
 *(.text.OTG_HS_WKUP_IRQHandler)
 *(.text.pcTimerGetTimerName)
 *fill*         0x08006fd4        0xc 
 .text.pcTimerGetTimerName
                0x08006fe0       0x34 /home/jon/dev_src/SEU-Detect-Correct/build/timers.o
                0x08006fe0                pcTimerGetTimerName
 *(.text.PendSV_Handler)
 *fill*         0x08007014        0xc 
 .text.PendSV_Handler
                0x08007020       0x7c /home/jon/dev_src/SEU-Detect-Correct/build/port.o
                0x08007020                PendSV_Handler
 *(.text.prvAddCurrentTaskToDelayedList)
 *fill*         0x0800709c        0x4 
 .text.prvAddCurrentTaskToDelayedList
                0x080070a0       0x88 /home/jon/dev_src/SEU-Detect-Correct/build/tasks.o

.text2          0x08008000     0x2f70
                0x08008000                . = ALIGN (0x4)
 *(.flash2hdr.FlashHeader2)
 *(.flash2func.section2_profile_func_enter)
 *(.text.prvAllocateTCBAndStack)
 .text.prvAllocateTCBAndStack
                0x08008000       0x88 /home/jon/dev_src/SEU-Detect-Correct/build/tasks.o
 *(.text.prvCheckForValidListAndQueue)
 *fill*         0x08008088       0x18 
 .text.prvCheckForValidListAndQueue
                0x080080a0       0xc0 /home/jon/dev_src/SEU-Detect-Correct/build/timers.o
 *(.text.prvCheckTasksWaitingTermination)
 .text.prvCheckTasksWaitingTermination
                0x08008160       0x90 /home/jon/dev_src/SEU-Detect-Correct/build/tasks.o
 *(.text.prvCopyDataFromQueue)
 *fill*         0x080081f0       0x10 
 .text.prvCopyDataFromQueue
                0x08008200       0x68 /home/jon/dev_src/SEU-Detect-Correct/build/queue.o
 *(.text.prvCopyDataToQueue)
 *fill*         0x08008268       0x18 
 .text.prvCopyDataToQueue
                0x08008280       0xf4 /home/jon/dev_src/SEU-Detect-Correct/build/queue.o
 *(.text.prvDeleteTCB)
 *fill*         0x08008374        0xc 
 .text.prvDeleteTCB
                0x08008380       0x3c /home/jon/dev_src/SEU-Detect-Correct/build/tasks.o
 *(.text.prvGetNextExpireTime)
 *fill*         0x080083bc        0x4 
 .text.prvGetNextExpireTime
                0x080083c0       0x60 /home/jon/dev_src/SEU-Detect-Correct/build/timers.o
 *(.text.prvHeapInit)
 .text.prvHeapInit
                0x08008420       0xdc /home/jon/dev_src/SEU-Detect-Correct/build/heap_4.o
 *(.text.prvIdleTask)
 *fill*         0x080084fc        0x4 
 .text.prvIdleTask
                0x08008500       0x40 /home/jon/dev_src/SEU-Detect-Correct/build/tasks.o
 *(.text.prvInitialiseTaskLists)
 .text.prvInitialiseTaskLists
                0x08008540       0x98 /home/jon/dev_src/SEU-Detect-Correct/build/tasks.o
 *(.text.prvInitialiseTCBVariables)
 *fill*         0x080085d8        0x8 
 .text.prvInitialiseTCBVariables
                0x080085e0       0xc4 /home/jon/dev_src/SEU-Detect-Correct/build/tasks.o
 *(.text.prvInsertBlockIntoFreeList)
 *fill*         0x080086a4       0x1c 
 .text.prvInsertBlockIntoFreeList
                0x080086c0       0xc8 /home/jon/dev_src/SEU-Detect-Correct/build/heap_4.o
 *(.text.prvInsertTimerInActiveList)
 *fill*         0x08008788       0x18 
 .text.prvInsertTimerInActiveList
                0x080087a0       0xa0 /home/jon/dev_src/SEU-Detect-Correct/build/timers.o
 *(.text.prvIsQueueEmpty)
 .text.prvIsQueueEmpty
                0x08008840       0x48 /home/jon/dev_src/SEU-Detect-Correct/build/queue.o
 *(.text.prvIsQueueFull)
 *fill*         0x08008888       0x18 
 .text.prvIsQueueFull
                0x080088a0       0x4c /home/jon/dev_src/SEU-Detect-Correct/build/queue.o
 *(.text.prvListTaskWithinSingleList)
 *fill*         0x080088ec       0x14 
 .text.prvListTaskWithinSingleList
                0x08008900      0x134 /home/jon/dev_src/SEU-Detect-Correct/build/tasks.o
 *(.text.prvPortStartFirstTask)
 *fill*         0x08008a34        0xc 
 .text.prvPortStartFirstTask
                0x08008a40       0x3c /home/jon/dev_src/SEU-Detect-Correct/build/port.o
 *(.text.prvProcessExpiredTimer)
 *fill*         0x08008a7c        0x4 
 .text.prvProcessExpiredTimer
                0x08008a80       0xb0 /home/jon/dev_src/SEU-Detect-Correct/build/timers.o
 *(.text.prvProcessReceivedCommands)
 *fill*         0x08008b30       0x10 
 .text.prvProcessReceivedCommands
                0x08008b40      0x168 /home/jon/dev_src/SEU-Detect-Correct/build/timers.o
 *(.text.prvProcessTimerOrBlockTask)
 *fill*         0x08008ca8       0x18 
 .text.prvProcessTimerOrBlockTask
                0x08008cc0       0x98 /home/jon/dev_src/SEU-Detect-Correct/build/timers.o
 *(.text.prvResetNextTaskUnblockTime)
 *fill*         0x08008d58        0x8 
 .text.prvResetNextTaskUnblockTime
                0x08008d60       0x60 /home/jon/dev_src/SEU-Detect-Correct/build/tasks.o
 *(.text.prvSampleTimeNow)
 .text.prvSampleTimeNow
                0x08008dc0       0x5c /home/jon/dev_src/SEU-Detect-Correct/build/timers.o
 *(.text.prvSwitchTimerLists)
 *fill*         0x08008e1c        0x4 
 .text.prvSwitchTimerLists
                0x08008e20       0xf4 /home/jon/dev_src/SEU-Detect-Correct/build/timers.o
 *(.text.prvTaskCheckFreeStackSpace)
 *fill*         0x08008f14        0xc 
 .text.prvTaskCheckFreeStackSpace
                0x08008f20       0x50 /home/jon/dev_src/SEU-Detect-Correct/build/tasks.o
 *(.text.prvTaskExitError)
 *fill*         0x08008f70       0x10 
 .text.prvTaskExitError
                0x08008f80       0x78 /home/jon/dev_src/SEU-Detect-Correct/build/port.o
 *(.text.prvTaskIsTaskSuspended)
 *fill*         0x08008ff8        0x8 
 .text.prvTaskIsTaskSuspended
                0x08009000       0xa4 /home/jon/dev_src/SEU-Detect-Correct/build/tasks.o
 *(.text.prvTestWaitCondition)
 *fill*         0x080090a4       0x1c 
 .text.prvTestWaitCondition
                0x080090c0       0x5c /home/jon/dev_src/SEU-Detect-Correct/build/event_groups.o
 *(.text.prvTimerTask)
 *fill*         0x0800911c        0x4 
 .text.prvTimerTask
                0x08009120       0x34 /home/jon/dev_src/SEU-Detect-Correct/build/timers.o
 *(.text.prvUnlockQueue)
 *fill*         0x08009154        0xc 
 .text.prvUnlockQueue
                0x08009160       0xb4 /home/jon/dev_src/SEU-Detect-Correct/build/queue.o
 *(.text.puts)
 .text.puts     0x08009214       0x10 /home/jon/gcc-arm-none-eabi-5_2-2015q4/arm-none-eabi/lib/armv7e-m/fpu/libc.a(lib_a-puts.o)
                0x08009214                puts
 *(.text._puts_r)
 .text._puts_r  0x08009224       0x64 /home/jon/gcc-arm-none-eabi-5_2-2015q4/arm-none-eabi/lib/armv7e-m/fpu/libc.a(lib_a-puts.o)
                0x08009224                _puts_r
 *(.text.PVD_IRQHandler)
 *(.text.pvPortMalloc)
 *fill*         0x08009288       0x18 
 .text.pvPortMalloc
                0x080092a0      0x1e8 /home/jon/dev_src/SEU-Detect-Correct/build/heap_4.o
                0x080092a0                pvPortMalloc
 *(.text.pvTaskIncrementMutexHeldCount)
 *fill*         0x08009488       0x18 
 .text.pvTaskIncrementMutexHeldCount
                0x080094a0       0x40 /home/jon/dev_src/SEU-Detect-Correct/build/tasks.o
                0x080094a0                pvTaskIncrementMutexHeldCount
 *(.text.pvTimerGetTimerID)
 .text.pvTimerGetTimerID
                0x080094e0       0x34 /home/jon/dev_src/SEU-Detect-Correct/build/timers.o
                0x080094e0                pvTimerGetTimerID
 *(.text.pxPortInitialiseStack)
 *fill*         0x08009514        0xc 
 .text.pxPortInitialiseStack
                0x08009520       0x7c /home/jon/dev_src/SEU-Detect-Correct/build/port.o
                0x08009520                pxPortInitialiseStack
 *(.text.RCC_AdjustHSICalibrationValue)
 *fill*         0x0800959c        0x4 
 .text.RCC_AdjustHSICalibrationValue
                0x080095a0       0x54 /home/jon/dev_src/SEU-Detect-Correct/build/stm32f4xx_rcc.o
                0x080095a0                RCC_AdjustHSICalibrationValue
 *(.text.RCC_AHB1PeriphClockCmd)
 *fill*         0x080095f4        0xc 
 .text.RCC_AHB1PeriphClockCmd
                0x08009600       0x54 /home/jon/dev_src/SEU-Detect-Correct/build/stm32f4xx_rcc.o
                0x08009600                RCC_AHB1PeriphClockCmd
 *(.text.RCC_AHB1PeriphClockLPModeCmd)
 *fill*         0x08009654        0xc 
 .text.RCC_AHB1PeriphClockLPModeCmd
                0x08009660       0x54 /home/jon/dev_src/SEU-Detect-Correct/build/stm32f4xx_rcc.o
                0x08009660                RCC_AHB1PeriphClockLPModeCmd
 *(.text.RCC_AHB1PeriphResetCmd)
 *fill*         0x080096b4        0xc 
 .text.RCC_AHB1PeriphResetCmd
                0x080096c0       0x54 /home/jon/dev_src/SEU-Detect-Correct/build/stm32f4xx_rcc.o
                0x080096c0                RCC_AHB1PeriphResetCmd
 *(.text.RCC_AHB2PeriphClockCmd)
 *fill*         0x08009714        0xc 
 .text.RCC_AHB2PeriphClockCmd
                0x08009720       0x54 /home/jon/dev_src/SEU-Detect-Correct/build/stm32f4xx_rcc.o
                0x08009720                RCC_AHB2PeriphClockCmd
 *(.text.RCC_AHB2PeriphClockLPModeCmd)
 *fill*         0x08009774        0xc 
 .text.RCC_AHB2PeriphClockLPModeCmd
                0x08009780       0x54 /home/jon/dev_src/SEU-Detect-Correct/build/stm32f4xx_rcc.o
                0x08009780                RCC_AHB2PeriphClockLPModeCmd
 *(.text.RCC_AHB2PeriphResetCmd)
 *fill*         0x080097d4        0xc 
 .text.RCC_AHB2PeriphResetCmd
                0x080097e0       0x54 /home/jon/dev_src/SEU-Detect-Correct/build/stm32f4xx_rcc.o
                0x080097e0                RCC_AHB2PeriphResetCmd
 *(.text.RCC_AHB3PeriphClockCmd)
 *fill*         0x08009834        0xc 
 .text.RCC_AHB3PeriphClockCmd
                0x08009840       0x54 /home/jon/dev_src/SEU-Detect-Correct/build/stm32f4xx_rcc.o
                0x08009840                RCC_AHB3PeriphClockCmd
 *(.text.RCC_AHB3PeriphClockLPModeCmd)
 *fill*         0x08009894        0xc 
 .text.RCC_AHB3PeriphClockLPModeCmd
                0x080098a0       0x54 /home/jon/dev_src/SEU-Detect-Correct/build/stm32f4xx_rcc.o
                0x080098a0                RCC_AHB3PeriphClockLPModeCmd
 *(.text.RCC_AHB3PeriphResetCmd)
 *fill*         0x080098f4        0xc 
 .text.RCC_AHB3PeriphResetCmd
                0x08009900       0x54 /home/jon/dev_src/SEU-Detect-Correct/build/stm32f4xx_rcc.o
                0x08009900                RCC_AHB3PeriphResetCmd
 *(.text.RCC_APB1PeriphClockCmd)
 *fill*         0x08009954        0xc 
 .text.RCC_APB1PeriphClockCmd
                0x08009960       0x54 /home/jon/dev_src/SEU-Detect-Correct/build/stm32f4xx_rcc.o
                0x08009960                RCC_APB1PeriphClockCmd
 *(.text.RCC_APB1PeriphClockLPModeCmd)
 *fill*         0x080099b4        0xc 
 .text.RCC_APB1PeriphClockLPModeCmd
                0x080099c0       0x54 /home/jon/dev_src/SEU-Detect-Correct/build/stm32f4xx_rcc.o
                0x080099c0                RCC_APB1PeriphClockLPModeCmd
 *(.text.RCC_APB1PeriphResetCmd)
 *fill*         0x08009a14        0xc 
 .text.RCC_APB1PeriphResetCmd
                0x08009a20       0x54 /home/jon/dev_src/SEU-Detect-Correct/build/stm32f4xx_rcc.o
                0x08009a20                RCC_APB1PeriphResetCmd
 *(.text.RCC_APB2PeriphClockCmd)
 *fill*         0x08009a74        0xc 
 .text.RCC_APB2PeriphClockCmd
                0x08009a80       0x54 /home/jon/dev_src/SEU-Detect-Correct/build/stm32f4xx_rcc.o
                0x08009a80                RCC_APB2PeriphClockCmd
 *(.text.RCC_APB2PeriphClockLPModeCmd)
 *fill*         0x08009ad4        0xc 
 .text.RCC_APB2PeriphClockLPModeCmd
                0x08009ae0       0x54 /home/jon/dev_src/SEU-Detect-Correct/build/stm32f4xx_rcc.o
                0x08009ae0                RCC_APB2PeriphClockLPModeCmd
 *(.text.RCC_APB2PeriphResetCmd)
 *fill*         0x08009b34        0xc 
 .text.RCC_APB2PeriphResetCmd
                0x08009b40       0x54 /home/jon/dev_src/SEU-Detect-Correct/build/stm32f4xx_rcc.o
                0x08009b40                RCC_APB2PeriphResetCmd
 *(.text.RCC_BackupResetCmd)
 *fill*         0x08009b94        0xc 
 .text.RCC_BackupResetCmd
                0x08009ba0       0x38 /home/jon/dev_src/SEU-Detect-Correct/build/stm32f4xx_rcc.o
                0x08009ba0                RCC_BackupResetCmd
 *(.text.RCC_ClearFlag)
 *fill*         0x08009bd8        0x8 
 .text.RCC_ClearFlag
                0x08009be0       0x34 /home/jon/dev_src/SEU-Detect-Correct/build/stm32f4xx_rcc.o
                0x08009be0                RCC_ClearFlag
 *(.text.RCC_ClearITPendingBit)
 *fill*         0x08009c14        0xc 
 .text.RCC_ClearITPendingBit
                0x08009c20       0x38 /home/jon/dev_src/SEU-Detect-Correct/build/stm32f4xx_rcc.o
                0x08009c20                RCC_ClearITPendingBit
 *(.text.RCC_ClockSecuritySystemCmd)
 *fill*         0x08009c58        0x8 
 .text.RCC_ClockSecuritySystemCmd
                0x08009c60       0x38 /home/jon/dev_src/SEU-Detect-Correct/build/stm32f4xx_rcc.o
                0x08009c60                RCC_ClockSecuritySystemCmd
 *(.text.RCC_DeInit)
 *fill*         0x08009c98        0x8 
 .text.RCC_DeInit
                0x08009ca0       0x64 /home/jon/dev_src/SEU-Detect-Correct/build/stm32f4xx_rcc.o
                0x08009ca0                RCC_DeInit
 *(.text.RCC_GetClocksFreq)
 *fill*         0x08009d04       0x1c 
 .text.RCC_GetClocksFreq
                0x08009d20      0x16c /home/jon/dev_src/SEU-Detect-Correct/build/stm32f4xx_rcc.o
                0x08009d20                RCC_GetClocksFreq
 *(.text.RCC_GetFlagStatus)
 *fill*         0x08009e8c       0x14 
 .text.RCC_GetFlagStatus
                0x08009ea0       0x8c /home/jon/dev_src/SEU-Detect-Correct/build/stm32f4xx_rcc.o
                0x08009ea0                RCC_GetFlagStatus
 *(.text.RCC_GetITStatus)
 *fill*         0x08009f2c       0x14 
 .text.RCC_GetITStatus
                0x08009f40       0x50 /home/jon/dev_src/SEU-Detect-Correct/build/stm32f4xx_rcc.o
                0x08009f40                RCC_GetITStatus
 *(.text.RCC_GetSYSCLKSource)
 *fill*         0x08009f90       0x10 
 .text.RCC_GetSYSCLKSource
                0x08009fa0       0x34 /home/jon/dev_src/SEU-Detect-Correct/build/stm32f4xx_rcc.o
                0x08009fa0                RCC_GetSYSCLKSource
 *(.text.RCC_HCLKConfig)
 *fill*         0x08009fd4        0xc 
 .text.RCC_HCLKConfig
                0x08009fe0       0x50 /home/jon/dev_src/SEU-Detect-Correct/build/stm32f4xx_rcc.o
                0x08009fe0                RCC_HCLKConfig
 *(.text.RCC_HSEConfig)
 *fill*         0x0800a030       0x10 
 .text.RCC_HSEConfig
                0x0800a040       0x3c /home/jon/dev_src/SEU-Detect-Correct/build/stm32f4xx_rcc.o
                0x0800a040                RCC_HSEConfig
 *(.text.RCC_HSICmd)
 *fill*         0x0800a07c        0x4 
 .text.RCC_HSICmd
                0x0800a080       0x38 /home/jon/dev_src/SEU-Detect-Correct/build/stm32f4xx_rcc.o
                0x0800a080                RCC_HSICmd
 *(.text.RCC_I2SCLKConfig)
 *fill*         0x0800a0b8        0x8 
 .text.RCC_I2SCLKConfig
                0x0800a0c0       0x34 /home/jon/dev_src/SEU-Detect-Correct/build/stm32f4xx_rcc.o
                0x0800a0c0                RCC_I2SCLKConfig
 *(.text.RCC_IRQHandler)
 *(.text.RCC_ITConfig)
 *fill*         0x0800a0f4        0xc 
 .text.RCC_ITConfig
                0x0800a100       0x64 /home/jon/dev_src/SEU-Detect-Correct/build/stm32f4xx_rcc.o
                0x0800a100                RCC_ITConfig
 *(.text.RCC_LSEConfig)
 *fill*         0x0800a164       0x1c 
 .text.RCC_LSEConfig
                0x0800a180       0x58 /home/jon/dev_src/SEU-Detect-Correct/build/stm32f4xx_rcc.o
                0x0800a180                RCC_LSEConfig
 *(.text.RCC_LSICmd)
 *fill*         0x0800a1d8        0x8 
 .text.RCC_LSICmd
                0x0800a1e0       0x38 /home/jon/dev_src/SEU-Detect-Correct/build/stm32f4xx_rcc.o
                0x0800a1e0                RCC_LSICmd
 *(.text.RCC_MCO1Config)
 *fill*         0x0800a218        0x8 
 .text.RCC_MCO1Config
                0x0800a220       0x54 /home/jon/dev_src/SEU-Detect-Correct/build/stm32f4xx_rcc.o
                0x0800a220                RCC_MCO1Config
 *(.text.RCC_MCO2Config)
 *fill*         0x0800a274        0xc 
 .text.RCC_MCO2Config
                0x0800a280       0x54 /home/jon/dev_src/SEU-Detect-Correct/build/stm32f4xx_rcc.o
                0x0800a280                RCC_MCO2Config
 *(.text.RCC_PCLK1Config)
 *fill*         0x0800a2d4        0xc 
 .text.RCC_PCLK1Config
                0x0800a2e0       0x50 /home/jon/dev_src/SEU-Detect-Correct/build/stm32f4xx_rcc.o
                0x0800a2e0                RCC_PCLK1Config
 *(.text.RCC_PCLK2Config)
 *fill*         0x0800a330       0x10 
 .text.RCC_PCLK2Config
                0x0800a340       0x50 /home/jon/dev_src/SEU-Detect-Correct/build/stm32f4xx_rcc.o
                0x0800a340                RCC_PCLK2Config
 *(.text.RCC_PLLCmd)
 *fill*         0x0800a390       0x10 
 .text.RCC_PLLCmd
                0x0800a3a0       0x38 /home/jon/dev_src/SEU-Detect-Correct/build/stm32f4xx_rcc.o
                0x0800a3a0                RCC_PLLCmd
 *(.text.RCC_PLLConfig)
 *fill*         0x0800a3d8        0x8 
 .text.RCC_PLLConfig
                0x0800a3e0       0x54 /home/jon/dev_src/SEU-Detect-Correct/build/stm32f4xx_rcc.o
                0x0800a3e0                RCC_PLLConfig
 *(.text.RCC_PLLI2SCmd)
 *fill*         0x0800a434        0xc 
 .text.RCC_PLLI2SCmd
                0x0800a440       0x38 /home/jon/dev_src/SEU-Detect-Correct/build/stm32f4xx_rcc.o
                0x0800a440                RCC_PLLI2SCmd
 *(.text.RCC_PLLI2SConfig)
 *fill*         0x0800a478        0x8 
 .text.RCC_PLLI2SConfig
                0x0800a480       0x40 /home/jon/dev_src/SEU-Detect-Correct/build/stm32f4xx_rcc.o
                0x0800a480                RCC_PLLI2SConfig
 *(.text.RCC_RTCCLKCmd)
 .text.RCC_RTCCLKCmd
                0x0800a4c0       0x38 /home/jon/dev_src/SEU-Detect-Correct/build/stm32f4xx_rcc.o
                0x0800a4c0                RCC_RTCCLKCmd
 *(.text.RCC_RTCCLKConfig)
 *fill*         0x0800a4f8        0x8 
 .text.RCC_RTCCLKConfig
                0x0800a500       0x74 /home/jon/dev_src/SEU-Detect-Correct/build/stm32f4xx_rcc.o
                0x0800a500                RCC_RTCCLKConfig
 *(.text.RCC_SYSCLKConfig)
 *fill*         0x0800a574        0xc 
 .text.RCC_SYSCLKConfig
                0x0800a580       0x50 /home/jon/dev_src/SEU-Detect-Correct/build/stm32f4xx_rcc.o
                0x0800a580                RCC_SYSCLKConfig
 *(.text.RCC_WaitForHSEStartUp)
 *fill*         0x0800a5d0       0x10 
 .text.RCC_WaitForHSEStartUp
                0x0800a5e0       0x6c /home/jon/dev_src/SEU-Detect-Correct/build/stm32f4xx_rcc.o
                0x0800a5e0                RCC_WaitForHSEStartUp
 *(.text._read)
 *fill*         0x0800a64c       0x14 
 .text._read    0x0800a660       0x40 /home/jon/dev_src/SEU-Detect-Correct/build/syscalls.o
                0x0800a660                _read
 *(.text._read_r)
 .text._read_r  0x0800a6a0       0x2c /home/jon/gcc-arm-none-eabi-5_2-2015q4/arm-none-eabi/lib/armv7e-m/fpu/libc.a(lib_a-readr.o)
                0x0800a6a0                _read_r
 *(.text._realloc_r)
 .text._realloc_r
                0x0800a6cc      0x3e0 /home/jon/gcc-arm-none-eabi-5_2-2015q4/arm-none-eabi/lib/armv7e-m/fpu/libc.a(lib_a-reallocr.o)
                0x0800a6cc                _realloc_r
 *(.text._reclaim_reent)
 .text._reclaim_reent
                0x0800aaac       0x88 /home/jon/gcc-arm-none-eabi-5_2-2015q4/arm-none-eabi/lib/armv7e-m/fpu/libc.a(lib_a-reent.o)
                0x0800aaac                _reclaim_reent
 *(.text.Reset_Handler)
 .text.Reset_Handler
                0x0800ab34       0x44 /home/jon/dev_src/SEU-Detect-Correct/build/startup_stm32f4xx.o
                0x0800ab34                Reset_Handler
 *(.text.RNG_ClearFlag)
 *fill*         0x0800ab78        0x8 
 .text.RNG_ClearFlag
                0x0800ab80       0x3c /home/jon/dev_src/SEU-Detect-Correct/build/stm32f4xx_rng.o
                0x0800ab80                RNG_ClearFlag
 *(.text.RNG_ClearITPendingBit)
 *fill*         0x0800abbc        0x4 
 .text.RNG_ClearITPendingBit
                0x0800abc0       0x3c /home/jon/dev_src/SEU-Detect-Correct/build/stm32f4xx_rng.o
                0x0800abc0                RNG_ClearITPendingBit
 *(.text.RNG_Cmd)
 *fill*         0x0800abfc        0x4 
 .text.RNG_Cmd  0x0800ac00       0x50 /home/jon/dev_src/SEU-Detect-Correct/build/stm32f4xx_rng.o
                0x0800ac00                RNG_Cmd
 *(.text.RNG_DeInit)
 *fill*         0x0800ac50       0x10 
 .text.RNG_DeInit
                0x0800ac60       0x34 /home/jon/dev_src/SEU-Detect-Correct/build/stm32f4xx_rng.o
                0x0800ac60                RNG_DeInit
 *(.text.RNG_GetFlagStatus)
 *fill*         0x0800ac94        0xc 
 .text.RNG_GetFlagStatus
                0x0800aca0       0x50 /home/jon/dev_src/SEU-Detect-Correct/build/stm32f4xx_rng.o
                0x0800aca0                RNG_GetFlagStatus
 *(.text.RNG_GetITStatus)
 *fill*         0x0800acf0       0x10 
 .text.RNG_GetITStatus
                0x0800ad00       0x50 /home/jon/dev_src/SEU-Detect-Correct/build/stm32f4xx_rng.o
                0x0800ad00                RNG_GetITStatus
 *(.text.RNG_GetRandomNumber)
 *fill*         0x0800ad50       0x10 
 .text.RNG_GetRandomNumber
                0x0800ad60       0x2c /home/jon/dev_src/SEU-Detect-Correct/build/stm32f4xx_rng.o
                0x0800ad60                RNG_GetRandomNumber
 *(.text.RNG_ITConfig)
 *fill*         0x0800ad8c       0x14 
 .text.RNG_ITConfig
                0x0800ada0       0x50 /home/jon/dev_src/SEU-Detect-Correct/build/stm32f4xx_rng.o
                0x0800ada0                RNG_ITConfig
 *(.text.RTC_Alarm_IRQHandler)
 *(.text.RTC_WKUP_IRQHandler)
 *(.text._sbrk)
 *fill*         0x0800adf0       0x10 
 .text._sbrk    0x0800ae00       0x74 /home/jon/dev_src/SEU-Detect-Correct/build/syscalls.o
                0x0800ae00                _sbrk
 *(.text._sbrk_r)
 .text._sbrk_r  0x0800ae74       0x24 /home/jon/gcc-arm-none-eabi-5_2-2015q4/arm-none-eabi/lib/armv7e-m/fpu/libc.a(lib_a-sbrkr.o)
                0x0800ae74                _sbrk_r
 *(.text.scalbnf)
 .text.scalbnf  0x0800ae98       0xd0 /home/jon/gcc-arm-none-eabi-5_2-2015q4/arm-none-eabi/lib/armv7e-m/fpu/libm.a(lib_a-sf_scalbn.o)
                0x0800ae98                scalbnf
 *(.text.__sclose)
 .text.__sclose
                0x0800af68        0x8 /home/jon/gcc-arm-none-eabi-5_2-2015q4/arm-none-eabi/lib/armv7e-m/fpu/libc.a(lib_a-stdio.o)
                0x0800af68                __sclose
 *(.text.SDIO_IRQHandler)
 *(.text.section0_profile_func_enter)
 *(.text.section10_profile_func_enter)
 *(.text.section11_profile_func_enter)
 *(.text.section12_profile_func_enter)
 *(.text.section13_profile_func_enter)
 *(.text.section14_profile_func_enter)
 *(.text.section17_profile_func_enter)
 *(.text.section1_profile_func_enter)
 *(.text.section2_profile_func_enter)
 *(.text.section3_profile_func_enter)
 *(.text.section4_profile_func_enter)

.text3          0x0800c000     0x3110
                0x0800c000                . = ALIGN (0x4)
 *(.flash3hdr.FlashHeader3)
 *(.flash3func.section3_profile_func_enter)
 *(.text.section5_profile_func_enter)
 *(.text.section6_profile_func_enter)
 *(.text.section7_profile_func_enter)
 *(.text.section8_profile_func_enter)
 *(.text.section9_profile_func_enter)
 *(.text.__seofread)
 .text.__seofread
                0x0800c000        0x4 /home/jon/gcc-arm-none-eabi-5_2-2015q4/arm-none-eabi/lib/armv7e-m/fpu/libc.a(lib_a-stdio.o)
                0x0800c000                __seofread
 *(.text.SetSysClock)
 *fill*         0x0800c004       0x1c 
 .text.SetSysClock
                0x0800c020      0x140 /home/jon/dev_src/SEU-Detect-Correct/build/system_stm32f4xx.o
 *(.text.__sflush_r)
 .text.__sflush_r
                0x0800c160      0x148 /home/jon/gcc-arm-none-eabi-5_2-2015q4/arm-none-eabi/lib/armv7e-m/fpu/libc.a(lib_a-fflush.o)
                0x0800c160                __sflush_r
 *(.text.__sfmoreglue)
 .text.__sfmoreglue
                0x0800c2a8       0x30 /home/jon/gcc-arm-none-eabi-5_2-2015q4/arm-none-eabi/lib/armv7e-m/fpu/libc.a(lib_a-findfp.o)
                0x0800c2a8                __sfmoreglue
 *(.text.__sfp)
 .text.__sfp    0x0800c2d8       0x88 /home/jon/gcc-arm-none-eabi-5_2-2015q4/arm-none-eabi/lib/armv7e-m/fpu/libc.a(lib_a-findfp.o)
                0x0800c2d8                __sfp
 *(.text.__sfp_lock_acquire)
 .text.__sfp_lock_acquire
                0x0800c360        0x4 /home/jon/gcc-arm-none-eabi-5_2-2015q4/arm-none-eabi/lib/armv7e-m/fpu/libc.a(lib_a-findfp.o)
                0x0800c360                __sfp_lock_acquire
 *(.text.__sfp_lock_release)
 .text.__sfp_lock_release
                0x0800c364        0x4 /home/jon/gcc-arm-none-eabi-5_2-2015q4/arm-none-eabi/lib/armv7e-m/fpu/libc.a(lib_a-findfp.o)
                0x0800c364                __sfp_lock_release
 *(.text.__sfvwrite_r)
 .text.__sfvwrite_r
                0x0800c368      0x300 /home/jon/gcc-arm-none-eabi-5_2-2015q4/arm-none-eabi/lib/armv7e-m/fpu/libc.a(lib_a-fvwrite.o)
                0x0800c368                __sfvwrite_r
 *(.text.sinf)
 .text.sinf     0x0800c668       0x94 /home/jon/gcc-arm-none-eabi-5_2-2015q4/arm-none-eabi/lib/armv7e-m/fpu/libm.a(lib_a-sf_sin.o)
                0x0800c668                sinf
 *(.text.__sinit)
 .text.__sinit  0x0800c6fc        0xc /home/jon/gcc-arm-none-eabi-5_2-2015q4/arm-none-eabi/lib/armv7e-m/fpu/libc.a(lib_a-findfp.o)
                0x0800c6fc                __sinit
 *(.text.__sinit_lock_acquire)
 .text.__sinit_lock_acquire
                0x0800c708        0x4 /home/jon/gcc-arm-none-eabi-5_2-2015q4/arm-none-eabi/lib/armv7e-m/fpu/libc.a(lib_a-findfp.o)
                0x0800c708                __sinit_lock_acquire
 *(.text.__sinit_lock_release)
 .text.__sinit_lock_release
                0x0800c70c        0x4 /home/jon/gcc-arm-none-eabi-5_2-2015q4/arm-none-eabi/lib/armv7e-m/fpu/libc.a(lib_a-findfp.o)
                0x0800c70c                __sinit_lock_release
 *(.text.__sinit.part.1)
 .text.__sinit.part.1
                0x0800c710       0xf0 /home/jon/gcc-arm-none-eabi-5_2-2015q4/arm-none-eabi/lib/armv7e-m/fpu/libc.a(lib_a-findfp.o)
 *(.text.__smakebuf_r)
 .text.__smakebuf_r
                0x0800c800       0xe0 /home/jon/gcc-arm-none-eabi-5_2-2015q4/arm-none-eabi/lib/armv7e-m/fpu/libc.a(lib_a-makebuf.o)
                0x0800c800                __smakebuf_r
 *(.text.SPI1_IRQHandler)
 *(.text.SPI2_IRQHandler)
 *(.text.SPI3_IRQHandler)
 *(.text.SPI_BiDirectionalLineConfig)
 .text.SPI_BiDirectionalLineConfig
                0x0800c8e0       0x58 /home/jon/dev_src/SEU-Detect-Correct/build/stm32f4xx_spi.o
                0x0800c8e0                SPI_BiDirectionalLineConfig
 *(.text.SPI_CalculateCRC)
 *fill*         0x0800c938        0x8 
 .text.SPI_CalculateCRC
                0x0800c940       0x58 /home/jon/dev_src/SEU-Detect-Correct/build/stm32f4xx_spi.o
                0x0800c940                SPI_CalculateCRC
 *(.text.SPI_Cmd)
 *fill*         0x0800c998        0x8 
 .text.SPI_Cmd  0x0800c9a0       0x58 /home/jon/dev_src/SEU-Detect-Correct/build/stm32f4xx_spi.o
                0x0800c9a0                SPI_Cmd
 *(.text.SPI_DataSizeConfig)
 *fill*         0x0800c9f8        0x8 
 .text.SPI_DataSizeConfig
                0x0800ca00       0x50 /home/jon/dev_src/SEU-Detect-Correct/build/stm32f4xx_spi.o
                0x0800ca00                SPI_DataSizeConfig
 *(.text.SPI_GetCRC)
 *fill*         0x0800ca50       0x10 
 .text.SPI_GetCRC
                0x0800ca60       0x4c /home/jon/dev_src/SEU-Detect-Correct/build/stm32f4xx_spi.o
                0x0800ca60                SPI_GetCRC
 *(.text.SPI_GetCRCPolynomial)
 *fill*         0x0800caac       0x14 
 .text.SPI_GetCRCPolynomial
                0x0800cac0       0x34 /home/jon/dev_src/SEU-Detect-Correct/build/stm32f4xx_spi.o
                0x0800cac0                SPI_GetCRCPolynomial
 *(.text.SPI_I2S_ClearFlag)
 *fill*         0x0800caf4        0xc 
 .text.SPI_I2S_ClearFlag
                0x0800cb00       0x38 /home/jon/dev_src/SEU-Detect-Correct/build/stm32f4xx_spi.o
                0x0800cb00                SPI_I2S_ClearFlag
 *(.text.SPI_I2S_ClearITPendingBit)
 *fill*         0x0800cb38        0x8 
 .text.SPI_I2S_ClearITPendingBit
                0x0800cb40       0x4c /home/jon/dev_src/SEU-Detect-Correct/build/stm32f4xx_spi.o
                0x0800cb40                SPI_I2S_ClearITPendingBit
 *(.text.SPI_I2S_DeInit)
 *fill*         0x0800cb8c       0x14 
 .text.SPI_I2S_DeInit
                0x0800cba0       0x90 /home/jon/dev_src/SEU-Detect-Correct/build/stm32f4xx_spi.o
                0x0800cba0                SPI_I2S_DeInit
 *(.text.SPI_I2S_DMACmd)
 *fill*         0x0800cc30       0x10 
 .text.SPI_I2S_DMACmd
                0x0800cc40       0x60 /home/jon/dev_src/SEU-Detect-Correct/build/stm32f4xx_spi.o
                0x0800cc40                SPI_I2S_DMACmd
 *(.text.SPI_I2S_GetFlagStatus)
 .text.SPI_I2S_GetFlagStatus
                0x0800cca0       0x50 /home/jon/dev_src/SEU-Detect-Correct/build/stm32f4xx_spi.o
                0x0800cca0                SPI_I2S_GetFlagStatus
 *(.text.SPI_I2S_GetITStatus)
 *fill*         0x0800ccf0       0x10 
 .text.SPI_I2S_GetITStatus
                0x0800cd00       0x90 /home/jon/dev_src/SEU-Detect-Correct/build/stm32f4xx_spi.o
                0x0800cd00                SPI_I2S_GetITStatus
 *(.text.SPI_I2S_ITConfig)
 *fill*         0x0800cd90       0x10 
 .text.SPI_I2S_ITConfig
                0x0800cda0       0x78 /home/jon/dev_src/SEU-Detect-Correct/build/stm32f4xx_spi.o
                0x0800cda0                SPI_I2S_ITConfig
 *(.text.SPI_I2S_ReceiveData)
 *fill*         0x0800ce18        0x8 
 .text.SPI_I2S_ReceiveData
                0x0800ce20       0x34 /home/jon/dev_src/SEU-Detect-Correct/build/stm32f4xx_spi.o
                0x0800ce20                SPI_I2S_ReceiveData
 *(.text.SPI_I2S_SendData)
 *fill*         0x0800ce54        0xc 
 .text.SPI_I2S_SendData
                0x0800ce60       0x34 /home/jon/dev_src/SEU-Detect-Correct/build/stm32f4xx_spi.o
                0x0800ce60                SPI_I2S_SendData
 *(.text.SPI_Init)
 *fill*         0x0800ce94        0xc 
 .text.SPI_Init
                0x0800cea0       0xa0 /home/jon/dev_src/SEU-Detect-Correct/build/stm32f4xx_spi.o
                0x0800cea0                SPI_Init
 *(.text.SPI_NSSInternalSoftwareConfig)
 .text.SPI_NSSInternalSoftwareConfig
                0x0800cf40       0x5c /home/jon/dev_src/SEU-Detect-Correct/build/stm32f4xx_spi.o
                0x0800cf40                SPI_NSSInternalSoftwareConfig
 *(.text.SPI_SSOutputCmd)
 *fill*         0x0800cf9c        0x4 
 .text.SPI_SSOutputCmd
                0x0800cfa0       0x58 /home/jon/dev_src/SEU-Detect-Correct/build/stm32f4xx_spi.o
                0x0800cfa0                SPI_SSOutputCmd
 *(.text.SPI_StructInit)
 *fill*         0x0800cff8        0x8 
 .text.SPI_StructInit
                0x0800d000       0x60 /home/jon/dev_src/SEU-Detect-Correct/build/stm32f4xx_spi.o
                0x0800d000                SPI_StructInit
 *(.text.SPI_TIModeCmd)
 .text.SPI_TIModeCmd
                0x0800d060       0x58 /home/jon/dev_src/SEU-Detect-Correct/build/stm32f4xx_spi.o
                0x0800d060                SPI_TIModeCmd
 *(.text.SPI_TransmitCRC)
 *fill*         0x0800d0b8        0x8 
 .text.SPI_TransmitCRC
                0x0800d0c0       0x3c /home/jon/dev_src/SEU-Detect-Correct/build/stm32f4xx_spi.o
                0x0800d0c0                SPI_TransmitCRC
 *(.text.__sread)
 .text.__sread  0x0800d0fc       0x24 /home/jon/gcc-arm-none-eabi-5_2-2015q4/arm-none-eabi/lib/armv7e-m/fpu/libc.a(lib_a-stdio.o)
                0x0800d0fc                __sread
 *(.text.__sseek)
 .text.__sseek  0x0800d120       0x20 /home/jon/gcc-arm-none-eabi-5_2-2015q4/arm-none-eabi/lib/armv7e-m/fpu/libc.a(lib_a-stdio.o)
                0x0800d120                __sseek
 *(.text.strlen)
 *(.text.SVC_Handler)
 .text.SVC_Handler
                0x0800d140       0x3c /home/jon/dev_src/SEU-Detect-Correct/build/port.o
                0x0800d140                SVC_Handler
 *(.text.__swrite)
 .text.__swrite
                0x0800d17c       0x38 /home/jon/gcc-arm-none-eabi-5_2-2015q4/arm-none-eabi/lib/armv7e-m/fpu/libc.a(lib_a-stdio.o)
                0x0800d17c                __swrite
 *(.text.__swsetup_r)
 .text.__swsetup_r
                0x0800d1b4       0xc4 /home/jon/gcc-arm-none-eabi-5_2-2015q4/arm-none-eabi/lib/armv7e-m/fpu/libc.a(lib_a-wsetup.o)
                0x0800d1b4                __swsetup_r
 *(.text.SYSCFG_CompensationCellCmd)
 *fill*         0x0800d278        0x8 
 .text.SYSCFG_CompensationCellCmd
                0x0800d280       0x38 /home/jon/dev_src/SEU-Detect-Correct/build/stm32f4xx_syscfg.o
                0x0800d280                SYSCFG_CompensationCellCmd
 *(.text.SYSCFG_DeInit)
 *fill*         0x0800d2b8        0x8 
 .text.SYSCFG_DeInit
                0x0800d2c0       0x38 /home/jon/dev_src/SEU-Detect-Correct/build/stm32f4xx_syscfg.o
                0x0800d2c0                SYSCFG_DeInit
 *(.text.SYSCFG_ETH_MediaInterfaceConfig)
 *fill*         0x0800d2f8        0x8 
 .text.SYSCFG_ETH_MediaInterfaceConfig
                0x0800d300       0x34 /home/jon/dev_src/SEU-Detect-Correct/build/stm32f4xx_syscfg.o
                0x0800d300                SYSCFG_ETH_MediaInterfaceConfig
 *(.text.SYSCFG_EXTILineConfig)
 *fill*         0x0800d334        0xc 
 .text.SYSCFG_EXTILineConfig
                0x0800d340       0x9c /home/jon/dev_src/SEU-Detect-Correct/build/stm32f4xx_syscfg.o
                0x0800d340                SYSCFG_EXTILineConfig
 *(.text.SYSCFG_GetCompensationCellStatus)
 *fill*         0x0800d3dc        0x4 
 .text.SYSCFG_GetCompensationCellStatus
                0x0800d3e0       0x4c /home/jon/dev_src/SEU-Detect-Correct/build/stm32f4xx_syscfg.o
                0x0800d3e0                SYSCFG_GetCompensationCellStatus
 *(.text.SYSCFG_MemoryRemapConfig)
 *fill*         0x0800d42c       0x14 
 .text.SYSCFG_MemoryRemapConfig
                0x0800d440       0x38 /home/jon/dev_src/SEU-Detect-Correct/build/stm32f4xx_syscfg.o
                0x0800d440                SYSCFG_MemoryRemapConfig
 *(.text.SystemCoreClockUpdate)
 *fill*         0x0800d478        0x8 
 .text.SystemCoreClockUpdate
                0x0800d480      0x110 /home/jon/dev_src/SEU-Detect-Correct/build/system_stm32f4xx.o
                0x0800d480                SystemCoreClockUpdate
 *(.text.SystemInit)
 *fill*         0x0800d590       0x10 
 .text.SystemInit
                0x0800d5a0       0x84 /home/jon/dev_src/SEU-Detect-Correct/build/system_stm32f4xx.o
                0x0800d5a0                SystemInit
 *(.text.SysTick_CLKSourceConfig)
 *fill*         0x0800d624       0x1c 
 .text.SysTick_CLKSourceConfig
                0x0800d640       0x50 /home/jon/dev_src/SEU-Detect-Correct/build/misc.o
                0x0800d640                SysTick_CLKSourceConfig
 *(.text.SysTick_Handler)
 *fill*         0x0800d690       0x10 
 .text.SysTick_Handler
                0x0800d6a0       0x90 /home/jon/dev_src/SEU-Detect-Correct/build/port.o
                0x0800d6a0                SysTick_Handler
 *(.text.TAMP_STAMP_IRQHandler)
 *(.text.test_FPU_test)
 *fill*         0x0800d730       0x10 
 .text.test_FPU_test
                0x0800d740       0x4c /home/jon/dev_src/SEU-Detect-Correct/build/main.o
                0x0800d740                test_FPU_test
 *(.text.TI1_Config)
 *fill*         0x0800d78c       0x14 
 .text.TI1_Config
                0x0800d7a0       0x9c /home/jon/dev_src/SEU-Detect-Correct/build/stm32f4xx_tim.o
 *(.text.TI2_Config)
 *fill*         0x0800d83c        0x4 
 .text.TI2_Config
                0x0800d840       0xb0 /home/jon/dev_src/SEU-Detect-Correct/build/stm32f4xx_tim.o
 *(.text.TI3_Config)
 *fill*         0x0800d8f0       0x10 
 .text.TI3_Config
                0x0800d900       0xa8 /home/jon/dev_src/SEU-Detect-Correct/build/stm32f4xx_tim.o
 *(.text.TI4_Config)
 *fill*         0x0800d9a8       0x18 
 .text.TI4_Config
                0x0800d9c0       0xb4 /home/jon/dev_src/SEU-Detect-Correct/build/stm32f4xx_tim.o
 *(.text.TIM1_BRK_TIM9_IRQHandler)
 *(.text.TIM1_CC_IRQHandler)
 *(.text.TIM1_TRG_COM_TIM11_IRQHandler)
 *(.text.TIM1_UP_TIM10_IRQHandler)
 *(.text.TIM2_IRQHandler)
 *(.text.TIM3_IRQHandler)
 *(.text.TIM4_IRQHandler)
 *(.text.TIM5_IRQHandler)
 *(.text.TIM6_DAC_IRQHandler)
 *(.text.TIM7_IRQHandler)
 *(.text.TIM8_BRK_TIM12_IRQHandler)
 *(.text.TIM8_CC_IRQHandler)
 *(.text.TIM8_TRG_COM_TIM14_IRQHandler)
 *(.text.TIM8_UP_TIM13_IRQHandler)
 *(.text.TIM_ARRPreloadConfig)
 *fill*         0x0800da74        0xc 
 .text.TIM_ARRPreloadConfig
                0x0800da80       0x58 /home/jon/dev_src/SEU-Detect-Correct/build/stm32f4xx_tim.o
                0x0800da80                TIM_ARRPreloadConfig
 *(.text.TIM_BDTRConfig)
 *fill*         0x0800dad8        0x8 
 .text.TIM_BDTRConfig
                0x0800dae0       0x68 /home/jon/dev_src/SEU-Detect-Correct/build/stm32f4xx_tim.o
                0x0800dae0                TIM_BDTRConfig
 *(.text.TIM_BDTRStructInit)
 *fill*         0x0800db48       0x18 
 .text.TIM_BDTRStructInit
                0x0800db60       0x54 /home/jon/dev_src/SEU-Detect-Correct/build/stm32f4xx_tim.o
                0x0800db60                TIM_BDTRStructInit
 *(.text.TIM_CCPreloadControl)
 *fill*         0x0800dbb4        0xc 
 .text.TIM_CCPreloadControl
                0x0800dbc0       0x58 /home/jon/dev_src/SEU-Detect-Correct/build/stm32f4xx_tim.o
                0x0800dbc0                TIM_CCPreloadControl
 *(.text.TIM_CCxCmd)
 *fill*         0x0800dc18        0x8 
 .text.TIM_CCxCmd
                0x0800dc20       0x74 /home/jon/dev_src/SEU-Detect-Correct/build/stm32f4xx_tim.o
                0x0800dc20                TIM_CCxCmd
 *(.text.TIM_CCxNCmd)
 *fill*         0x0800dc94        0xc 
 .text.TIM_CCxNCmd
                0x0800dca0       0x74 /home/jon/dev_src/SEU-Detect-Correct/build/stm32f4xx_tim.o
                0x0800dca0                TIM_CCxNCmd
 *(.text.TIM_ClearFlag)
 *fill*         0x0800dd14        0xc 
 .text.TIM_ClearFlag
                0x0800dd20       0x38 /home/jon/dev_src/SEU-Detect-Correct/build/stm32f4xx_tim.o
                0x0800dd20                TIM_ClearFlag
 *(.text.TIM_ClearITPendingBit)
 *fill*         0x0800dd58        0x8 
 .text.TIM_ClearITPendingBit
                0x0800dd60       0x38 /home/jon/dev_src/SEU-Detect-Correct/build/stm32f4xx_tim.o
                0x0800dd60                TIM_ClearITPendingBit
 *(.text.TIM_ClearOC1Ref)
 *fill*         0x0800dd98        0x8 
 .text.TIM_ClearOC1Ref
                0x0800dda0       0x50 /home/jon/dev_src/SEU-Detect-Correct/build/stm32f4xx_tim.o
                0x0800dda0                TIM_ClearOC1Ref
 *(.text.TIM_ClearOC2Ref)
 *fill*         0x0800ddf0       0x10 
 .text.TIM_ClearOC2Ref
                0x0800de00       0x54 /home/jon/dev_src/SEU-Detect-Correct/build/stm32f4xx_tim.o
                0x0800de00                TIM_ClearOC2Ref
 *(.text.TIM_ClearOC3Ref)
 *fill*         0x0800de54        0xc 
 .text.TIM_ClearOC3Ref
                0x0800de60       0x50 /home/jon/dev_src/SEU-Detect-Correct/build/stm32f4xx_tim.o
                0x0800de60                TIM_ClearOC3Ref
 *(.text.TIM_ClearOC4Ref)
 *fill*         0x0800deb0       0x10 
 .text.TIM_ClearOC4Ref
                0x0800dec0       0x54 /home/jon/dev_src/SEU-Detect-Correct/build/stm32f4xx_tim.o
                0x0800dec0                TIM_ClearOC4Ref
 *(.text.TIM_Cmd)
 *fill*         0x0800df14        0xc 
 .text.TIM_Cmd  0x0800df20       0x58 /home/jon/dev_src/SEU-Detect-Correct/build/stm32f4xx_tim.o
                0x0800df20                TIM_Cmd
 *(.text.TIM_CounterModeConfig)
 *fill*         0x0800df78        0x8 
 .text.TIM_CounterModeConfig
                0x0800df80       0x50 /home/jon/dev_src/SEU-Detect-Correct/build/stm32f4xx_tim.o
                0x0800df80                TIM_CounterModeConfig
 *(.text.TIM_CtrlPWMOutputs)
 *fill*         0x0800dfd0       0x10 
 .text.TIM_CtrlPWMOutputs
                0x0800dfe0       0x64 /home/jon/dev_src/SEU-Detect-Correct/build/stm32f4xx_tim.o
                0x0800dfe0                TIM_CtrlPWMOutputs
 *(.text.TIM_DeInit)
 *fill*         0x0800e044       0x1c 
 .text.TIM_DeInit
                0x0800e060      0x1d8 /home/jon/dev_src/SEU-Detect-Correct/build/stm32f4xx_tim.o
                0x0800e060                TIM_DeInit
 *(.text.TIM_DMACmd)
 *fill*         0x0800e238        0x8 
 .text.TIM_DMACmd
                0x0800e240       0x60 /home/jon/dev_src/SEU-Detect-Correct/build/stm32f4xx_tim.o
                0x0800e240                TIM_DMACmd
 *(.text.TIM_DMAConfig)
 .text.TIM_DMAConfig
                0x0800e2a0       0x40 /home/jon/dev_src/SEU-Detect-Correct/build/stm32f4xx_tim.o
                0x0800e2a0                TIM_DMAConfig
 *(.text.TIM_EncoderInterfaceConfig)
 .text.TIM_EncoderInterfaceConfig
                0x0800e2e0       0xb0 /home/jon/dev_src/SEU-Detect-Correct/build/stm32f4xx_tim.o
                0x0800e2e0                TIM_EncoderInterfaceConfig
 *(.text.TIM_ETRClockMode1Config)
 *fill*         0x0800e390       0x10 
 .text.TIM_ETRClockMode1Config
                0x0800e3a0       0x78 /home/jon/dev_src/SEU-Detect-Correct/build/stm32f4xx_tim.o
                0x0800e3a0                TIM_ETRClockMode1Config
 *(.text.TIM_ETRClockMode2Config)
 *fill*         0x0800e418        0x8 
 .text.TIM_ETRClockMode2Config
                0x0800e420       0x58 /home/jon/dev_src/SEU-Detect-Correct/build/stm32f4xx_tim.o
                0x0800e420                TIM_ETRClockMode2Config
 *(.text.TIM_ETRConfig)
 *fill*         0x0800e478        0x8 
 .text.TIM_ETRConfig
                0x0800e480       0x6c /home/jon/dev_src/SEU-Detect-Correct/build/stm32f4xx_tim.o
                0x0800e480                TIM_ETRConfig
 *(.text.TIM_ForcedOC1Config)
 *fill*         0x0800e4ec       0x14 
 .text.TIM_ForcedOC1Config
                0x0800e500       0x50 /home/jon/dev_src/SEU-Detect-Correct/build/stm32f4xx_tim.o
                0x0800e500                TIM_ForcedOC1Config
 *(.text.TIM_ForcedOC2Config)
 *fill*         0x0800e550       0x10 
 .text.TIM_ForcedOC2Config
                0x0800e560       0x54 /home/jon/dev_src/SEU-Detect-Correct/build/stm32f4xx_tim.o
                0x0800e560                TIM_ForcedOC2Config
 *(.text.TIM_ForcedOC3Config)
 *fill*         0x0800e5b4        0xc 
 .text.TIM_ForcedOC3Config
                0x0800e5c0       0x50 /home/jon/dev_src/SEU-Detect-Correct/build/stm32f4xx_tim.o
                0x0800e5c0                TIM_ForcedOC3Config
 *(.text.TIM_ForcedOC4Config)
 *fill*         0x0800e610       0x10 
 .text.TIM_ForcedOC4Config
                0x0800e620       0x54 /home/jon/dev_src/SEU-Detect-Correct/build/stm32f4xx_tim.o
                0x0800e620                TIM_ForcedOC4Config
 *(.text.TIM_GenerateEvent)
 *fill*         0x0800e674        0xc 
 .text.TIM_GenerateEvent
                0x0800e680       0x34 /home/jon/dev_src/SEU-Detect-Correct/build/stm32f4xx_tim.o
                0x0800e680                TIM_GenerateEvent
 *(.text.TIM_GetCapture1)
 *fill*         0x0800e6b4        0xc 
 .text.TIM_GetCapture1
                0x0800e6c0       0x30 /home/jon/dev_src/SEU-Detect-Correct/build/stm32f4xx_tim.o
                0x0800e6c0                TIM_GetCapture1
 *(.text.TIM_GetCapture2)
 *fill*         0x0800e6f0       0x10 
 .text.TIM_GetCapture2
                0x0800e700       0x30 /home/jon/dev_src/SEU-Detect-Correct/build/stm32f4xx_tim.o
                0x0800e700                TIM_GetCapture2
 *(.text.TIM_GetCapture3)
 *fill*         0x0800e730       0x10 
 .text.TIM_GetCapture3
                0x0800e740       0x30 /home/jon/dev_src/SEU-Detect-Correct/build/stm32f4xx_tim.o
                0x0800e740                TIM_GetCapture3
 *(.text.TIM_GetCapture4)
 *fill*         0x0800e770       0x10 
 .text.TIM_GetCapture4
                0x0800e780       0x30 /home/jon/dev_src/SEU-Detect-Correct/build/stm32f4xx_tim.o
                0x0800e780                TIM_GetCapture4
 *(.text.TIM_GetCounter)
 *fill*         0x0800e7b0       0x10 
 .text.TIM_GetCounter
                0x0800e7c0       0x30 /home/jon/dev_src/SEU-Detect-Correct/build/stm32f4xx_tim.o
                0x0800e7c0                TIM_GetCounter
 *(.text.TIM_GetFlagStatus)
 *fill*         0x0800e7f0       0x10 
 .text.TIM_GetFlagStatus
                0x0800e800       0x50 /home/jon/dev_src/SEU-Detect-Correct/build/stm32f4xx_tim.o
                0x0800e800                TIM_GetFlagStatus
 *(.text.TIM_GetITStatus)
 *fill*         0x0800e850       0x10 
 .text.TIM_GetITStatus
                0x0800e860       0x6c /home/jon/dev_src/SEU-Detect-Correct/build/stm32f4xx_tim.o
                0x0800e860                TIM_GetITStatus
 *(.text.TIM_GetPrescaler)
 *fill*         0x0800e8cc       0x14 
 .text.TIM_GetPrescaler
                0x0800e8e0       0x34 /home/jon/dev_src/SEU-Detect-Correct/build/stm32f4xx_tim.o
                0x0800e8e0                TIM_GetPrescaler
 *(.text.TIM_ICInit)
 *fill*         0x0800e914        0xc 
 .text.TIM_ICInit
                0x0800e920       0xc4 /home/jon/dev_src/SEU-Detect-Correct/build/stm32f4xx_tim.o
                0x0800e920                TIM_ICInit
 *(.text.TIM_ICStructInit)
 *fill*         0x0800e9e4       0x1c 
 .text.TIM_ICStructInit
                0x0800ea00       0x48 /home/jon/dev_src/SEU-Detect-Correct/build/stm32f4xx_tim.o
                0x0800ea00                TIM_ICStructInit
 *(.text.TIM_InternalClockConfig)
 *fill*         0x0800ea48       0x18 
 .text.TIM_InternalClockConfig
                0x0800ea60       0x3c /home/jon/dev_src/SEU-Detect-Correct/build/stm32f4xx_tim.o
                0x0800ea60                TIM_InternalClockConfig
 *(.text.TIM_ITConfig)
 *fill*         0x0800ea9c        0x4 
 .text.TIM_ITConfig
                0x0800eaa0       0x60 /home/jon/dev_src/SEU-Detect-Correct/build/stm32f4xx_tim.o
                0x0800eaa0                TIM_ITConfig
 *(.text.TIM_ITRxExternalClockConfig)
 .text.TIM_ITRxExternalClockConfig
                0x0800eb00       0x48 /home/jon/dev_src/SEU-Detect-Correct/build/stm32f4xx_tim.o
                0x0800eb00                TIM_ITRxExternalClockConfig
 *(.text.TIM_OC1FastConfig)
 *fill*         0x0800eb48       0x18 
 .text.TIM_OC1FastConfig
                0x0800eb60       0x50 /home/jon/dev_src/SEU-Detect-Correct/build/stm32f4xx_tim.o
                0x0800eb60                TIM_OC1FastConfig
 *(.text.TIM_OC1Init)
 *fill*         0x0800ebb0       0x10 
 .text.TIM_OC1Init
                0x0800ebc0      0x10c /home/jon/dev_src/SEU-Detect-Correct/build/stm32f4xx_tim.o
                0x0800ebc0                TIM_OC1Init
 *(.text.TIM_OC1NPolarityConfig)
 *fill*         0x0800eccc       0x14 
 .text.TIM_OC1NPolarityConfig
                0x0800ece0       0x50 /home/jon/dev_src/SEU-Detect-Correct/build/stm32f4xx_tim.o
                0x0800ece0                TIM_OC1NPolarityConfig
 *(.text.TIM_OC1PolarityConfig)
 *fill*         0x0800ed30       0x10 
 .text.TIM_OC1PolarityConfig
                0x0800ed40       0x50 /home/jon/dev_src/SEU-Detect-Correct/build/stm32f4xx_tim.o
                0x0800ed40                TIM_OC1PolarityConfig
 *(.text.TIM_OC1PreloadConfig)
 *fill*         0x0800ed90       0x10 
 .text.TIM_OC1PreloadConfig
                0x0800eda0       0x50 /home/jon/dev_src/SEU-Detect-Correct/build/stm32f4xx_tim.o
                0x0800eda0                TIM_OC1PreloadConfig
 *(.text.TIM_OC2FastConfig)
 *fill*         0x0800edf0       0x10 
 .text.TIM_OC2FastConfig
                0x0800ee00       0x54 /home/jon/dev_src/SEU-Detect-Correct/build/stm32f4xx_tim.o
                0x0800ee00                TIM_OC2FastConfig
 *(.text.TIM_OC2Init)
 *fill*         0x0800ee54        0xc 
 .text.TIM_OC2Init
                0x0800ee60      0x128 /home/jon/dev_src/SEU-Detect-Correct/build/stm32f4xx_tim.o
                0x0800ee60                TIM_OC2Init
 *(.text.TIM_OC2NPolarityConfig)
 *fill*         0x0800ef88       0x18 
 .text.TIM_OC2NPolarityConfig
                0x0800efa0       0x54 /home/jon/dev_src/SEU-Detect-Correct/build/stm32f4xx_tim.o
                0x0800efa0                TIM_OC2NPolarityConfig
 *(.text.TIM_OC2PolarityConfig)
 *fill*         0x0800eff4        0xc 
 .text.TIM_OC2PolarityConfig
                0x0800f000       0x54 /home/jon/dev_src/SEU-Detect-Correct/build/stm32f4xx_tim.o
                0x0800f000                TIM_OC2PolarityConfig
 *(.text.TIM_OC2PreloadConfig)
 *fill*         0x0800f054        0xc 
 .text.TIM_OC2PreloadConfig
                0x0800f060       0x54 /home/jon/dev_src/SEU-Detect-Correct/build/stm32f4xx_tim.o
                0x0800f060                TIM_OC2PreloadConfig
 *(.text.TIM_OC3FastConfig)
 *fill*         0x0800f0b4        0xc 
 .text.TIM_OC3FastConfig
                0x0800f0c0       0x50 /home/jon/dev_src/SEU-Detect-Correct/build/stm32f4xx_tim.o
                0x0800f0c0                TIM_OC3FastConfig

.text4          0x08010000     0x6d8c
                0x08010000                . = ALIGN (0x4)
 *(.flash4hdr.FlashHeader4)
 *(.flash4func.section4_profile_func_enter)
 *(.text.TIM_OC3Init)
 .text.TIM_OC3Init
                0x08010000      0x124 /home/jon/dev_src/SEU-Detect-Correct/build/stm32f4xx_tim.o
                0x08010000                TIM_OC3Init
 *(.text.TIM_OC3NPolarityConfig)
 *fill*         0x08010124       0x1c 
 .text.TIM_OC3NPolarityConfig
                0x08010140       0x54 /home/jon/dev_src/SEU-Detect-Correct/build/stm32f4xx_tim.o
                0x08010140                TIM_OC3NPolarityConfig
 *(.text.TIM_OC3PolarityConfig)
 *fill*         0x08010194        0xc 
 .text.TIM_OC3PolarityConfig
                0x080101a0       0x54 /home/jon/dev_src/SEU-Detect-Correct/build/stm32f4xx_tim.o
                0x080101a0                TIM_OC3PolarityConfig
 *(.text.TIM_OC3PreloadConfig)
 *fill*         0x080101f4        0xc 
 .text.TIM_OC3PreloadConfig
                0x08010200       0x50 /home/jon/dev_src/SEU-Detect-Correct/build/stm32f4xx_tim.o
                0x08010200                TIM_OC3PreloadConfig
 *(.text.TIM_OC4FastConfig)
 *fill*         0x08010250       0x10 
 .text.TIM_OC4FastConfig
                0x08010260       0x54 /home/jon/dev_src/SEU-Detect-Correct/build/stm32f4xx_tim.o
                0x08010260                TIM_OC4FastConfig
 *(.text.TIM_OC4Init)
 *fill*         0x080102b4        0xc 
 .text.TIM_OC4Init
                0x080102c0       0xe4 /home/jon/dev_src/SEU-Detect-Correct/build/stm32f4xx_tim.o
                0x080102c0                TIM_OC4Init
 *(.text.TIM_OC4PolarityConfig)
 *fill*         0x080103a4       0x1c 
 .text.TIM_OC4PolarityConfig
                0x080103c0       0x54 /home/jon/dev_src/SEU-Detect-Correct/build/stm32f4xx_tim.o
                0x080103c0                TIM_OC4PolarityConfig
 *(.text.TIM_OC4PreloadConfig)
 *fill*         0x08010414        0xc 
 .text.TIM_OC4PreloadConfig
                0x08010420       0x54 /home/jon/dev_src/SEU-Detect-Correct/build/stm32f4xx_tim.o
                0x08010420                TIM_OC4PreloadConfig
 *(.text.TIM_OCStructInit)
 *fill*         0x08010474        0xc 
 .text.TIM_OCStructInit
                0x08010480       0x5c /home/jon/dev_src/SEU-Detect-Correct/build/stm32f4xx_tim.o
                0x08010480                TIM_OCStructInit
 *(.text.TIM_PrescalerConfig)
 *fill*         0x080104dc        0x4 
 .text.TIM_PrescalerConfig
                0x080104e0       0x40 /home/jon/dev_src/SEU-Detect-Correct/build/stm32f4xx_tim.o
                0x080104e0                TIM_PrescalerConfig
 *(.text.TIM_PWMIConfig)
 .text.TIM_PWMIConfig
                0x08010520       0xd4 /home/jon/dev_src/SEU-Detect-Correct/build/stm32f4xx_tim.o
                0x08010520                TIM_PWMIConfig
 *(.text.TIM_RemapConfig)
 *fill*         0x080105f4        0xc 
 .text.TIM_RemapConfig
                0x08010600       0x38 /home/jon/dev_src/SEU-Detect-Correct/build/stm32f4xx_tim.o
                0x08010600                TIM_RemapConfig
 *(.text.TIM_SelectCCDMA)
 *fill*         0x08010638        0x8 
 .text.TIM_SelectCCDMA
                0x08010640       0x58 /home/jon/dev_src/SEU-Detect-Correct/build/stm32f4xx_tim.o
                0x08010640                TIM_SelectCCDMA
 *(.text.TIM_SelectCOM)
 *fill*         0x08010698        0x8 
 .text.TIM_SelectCOM
                0x080106a0       0x58 /home/jon/dev_src/SEU-Detect-Correct/build/stm32f4xx_tim.o
                0x080106a0                TIM_SelectCOM
 *(.text.TIM_SelectHallSensor)
 *fill*         0x080106f8        0x8 
 .text.TIM_SelectHallSensor
                0x08010700       0x58 /home/jon/dev_src/SEU-Detect-Correct/build/stm32f4xx_tim.o
                0x08010700                TIM_SelectHallSensor
 *(.text.TIM_SelectInputTrigger)
 *fill*         0x08010758        0x8 
 .text.TIM_SelectInputTrigger
                0x08010760       0x50 /home/jon/dev_src/SEU-Detect-Correct/build/stm32f4xx_tim.o
                0x08010760                TIM_SelectInputTrigger
 *(.text.TIM_SelectMasterSlaveMode)
 *fill*         0x080107b0       0x10 
 .text.TIM_SelectMasterSlaveMode
                0x080107c0       0x50 /home/jon/dev_src/SEU-Detect-Correct/build/stm32f4xx_tim.o
                0x080107c0                TIM_SelectMasterSlaveMode
 *(.text.TIM_SelectOCxM)
 *fill*         0x08010810       0x10 
 .text.TIM_SelectOCxM
                0x08010820       0xc8 /home/jon/dev_src/SEU-Detect-Correct/build/stm32f4xx_tim.o
                0x08010820                TIM_SelectOCxM
 *(.text.TIM_SelectOnePulseMode)
 *fill*         0x080108e8       0x18 
 .text.TIM_SelectOnePulseMode
                0x08010900       0x50 /home/jon/dev_src/SEU-Detect-Correct/build/stm32f4xx_tim.o
                0x08010900                TIM_SelectOnePulseMode
 *(.text.TIM_SelectOutputTrigger)
 *fill*         0x08010950       0x10 
 .text.TIM_SelectOutputTrigger
                0x08010960       0x50 /home/jon/dev_src/SEU-Detect-Correct/build/stm32f4xx_tim.o
                0x08010960                TIM_SelectOutputTrigger
 *(.text.TIM_SelectSlaveMode)
 *fill*         0x080109b0       0x10 
 .text.TIM_SelectSlaveMode
                0x080109c0       0x50 /home/jon/dev_src/SEU-Detect-Correct/build/stm32f4xx_tim.o
                0x080109c0                TIM_SelectSlaveMode
 *(.text.TIM_SetAutoreload)
 *fill*         0x08010a10       0x10 
 .text.TIM_SetAutoreload
                0x08010a20       0x34 /home/jon/dev_src/SEU-Detect-Correct/build/stm32f4xx_tim.o
                0x08010a20                TIM_SetAutoreload
 *(.text.TIM_SetClockDivision)
 *fill*         0x08010a54        0xc 
 .text.TIM_SetClockDivision
                0x08010a60       0x50 /home/jon/dev_src/SEU-Detect-Correct/build/stm32f4xx_tim.o
                0x08010a60                TIM_SetClockDivision
 *(.text.TIM_SetCompare1)
 *fill*         0x08010ab0       0x10 
 .text.TIM_SetCompare1
                0x08010ac0       0x34 /home/jon/dev_src/SEU-Detect-Correct/build/stm32f4xx_tim.o
                0x08010ac0                TIM_SetCompare1
 *(.text.TIM_SetCompare2)
 *fill*         0x08010af4        0xc 
 .text.TIM_SetCompare2
                0x08010b00       0x34 /home/jon/dev_src/SEU-Detect-Correct/build/stm32f4xx_tim.o
                0x08010b00                TIM_SetCompare2
 *(.text.TIM_SetCompare3)
 *fill*         0x08010b34        0xc 
 .text.TIM_SetCompare3
                0x08010b40       0x34 /home/jon/dev_src/SEU-Detect-Correct/build/stm32f4xx_tim.o
                0x08010b40                TIM_SetCompare3
 *(.text.TIM_SetCompare4)
 *fill*         0x08010b74        0xc 
 .text.TIM_SetCompare4
                0x08010b80       0x34 /home/jon/dev_src/SEU-Detect-Correct/build/stm32f4xx_tim.o
                0x08010b80                TIM_SetCompare4
 *(.text.TIM_SetCounter)
 *fill*         0x08010bb4        0xc 
 .text.TIM_SetCounter
                0x08010bc0       0x34 /home/jon/dev_src/SEU-Detect-Correct/build/stm32f4xx_tim.o
                0x08010bc0                TIM_SetCounter
 *(.text.TIM_SetIC1Prescaler)
 *fill*         0x08010bf4        0xc 
 .text.TIM_SetIC1Prescaler
                0x08010c00       0x50 /home/jon/dev_src/SEU-Detect-Correct/build/stm32f4xx_tim.o
                0x08010c00                TIM_SetIC1Prescaler
 *(.text.TIM_SetIC2Prescaler)
 *fill*         0x08010c50       0x10 
 .text.TIM_SetIC2Prescaler
                0x08010c60       0x54 /home/jon/dev_src/SEU-Detect-Correct/build/stm32f4xx_tim.o
                0x08010c60                TIM_SetIC2Prescaler
 *(.text.TIM_SetIC3Prescaler)
 *fill*         0x08010cb4        0xc 
 .text.TIM_SetIC3Prescaler
                0x08010cc0       0x50 /home/jon/dev_src/SEU-Detect-Correct/build/stm32f4xx_tim.o
                0x08010cc0                TIM_SetIC3Prescaler
 *(.text.TIM_SetIC4Prescaler)
 *fill*         0x08010d10       0x10 
 .text.TIM_SetIC4Prescaler
                0x08010d20       0x54 /home/jon/dev_src/SEU-Detect-Correct/build/stm32f4xx_tim.o
                0x08010d20                TIM_SetIC4Prescaler
 *(.text.TIM_TimeBaseInit)
 *fill*         0x08010d74        0xc 
 .text.TIM_TimeBaseInit
                0x08010d80       0xec /home/jon/dev_src/SEU-Detect-Correct/build/stm32f4xx_tim.o
                0x08010d80                TIM_TimeBaseInit
 *(.text.TIM_TimeBaseStructInit)
 *fill*         0x08010e6c       0x14 
 .text.TIM_TimeBaseStructInit
                0x08010e80       0x4c /home/jon/dev_src/SEU-Detect-Correct/build/stm32f4xx_tim.o
                0x08010e80                TIM_TimeBaseStructInit
 *(.text.TIM_TIxExternalClockConfig)
 *fill*         0x08010ecc       0x14 
 .text.TIM_TIxExternalClockConfig
                0x08010ee0       0x78 /home/jon/dev_src/SEU-Detect-Correct/build/stm32f4xx_tim.o
                0x08010ee0                TIM_TIxExternalClockConfig
 *(.text.TIM_UpdateDisableConfig)
 *fill*         0x08010f58        0x8 
 .text.TIM_UpdateDisableConfig
                0x08010f60       0x58 /home/jon/dev_src/SEU-Detect-Correct/build/stm32f4xx_tim.o
                0x08010f60                TIM_UpdateDisableConfig
 *(.text.TIM_UpdateRequestConfig)
 *fill*         0x08010fb8        0x8 
 .text.TIM_UpdateRequestConfig
                0x08010fc0       0x58 /home/jon/dev_src/SEU-Detect-Correct/build/stm32f4xx_tim.o
                0x08010fc0                TIM_UpdateRequestConfig
 *(.text.UART4_IRQHandler)
 *(.text.UART5_IRQHandler)
 *(.text.ucPortCountLeadingZeros)
 *fill*         0x08011018        0x8 
 .text.ucPortCountLeadingZeros
                0x08011020       0x38 /home/jon/dev_src/SEU-Detect-Correct/build/tasks.o
 *(.text.ucQueueGetQueueType)
 *fill*         0x08011058        0x8 
 .text.ucQueueGetQueueType
                0x08011060       0x34 /home/jon/dev_src/SEU-Detect-Correct/build/queue.o
                0x08011060                ucQueueGetQueueType
 *(.text.ulTaskNotifyTake)
 *fill*         0x08011094        0xc 
 .text.ulTaskNotifyTake
                0x080110a0      0x104 /home/jon/dev_src/SEU-Detect-Correct/build/tasks.o
                0x080110a0                ulTaskNotifyTake
 *(.text.UsageFault_Handler)
 *(.text.USART1_IRQHandler)
 *(.text.USART2_IRQHandler)
 *(.text.USART3_IRQHandler)
 *(.text.USART6_IRQHandler)
 *(.text.USART_ClearFlag)
 *fill*         0x080111a4       0x1c 
 .text.USART_ClearFlag
                0x080111c0       0x38 /home/jon/dev_src/SEU-Detect-Correct/build/stm32f4xx_usart.o
                0x080111c0                USART_ClearFlag
 *(.text.USART_ClearITPendingBit)
 *fill*         0x080111f8        0x8 
 .text.USART_ClearITPendingBit
                0x08011200       0x50 /home/jon/dev_src/SEU-Detect-Correct/build/stm32f4xx_usart.o
                0x08011200                USART_ClearITPendingBit
 *(.text.USART_ClockInit)
 *fill*         0x08011250       0x10 
 .text.USART_ClockInit
                0x08011260       0x6c /home/jon/dev_src/SEU-Detect-Correct/build/stm32f4xx_usart.o
                0x08011260                USART_ClockInit
 *(.text.USART_ClockStructInit)
 *fill*         0x080112cc       0x14 
 .text.USART_ClockStructInit
                0x080112e0       0x44 /home/jon/dev_src/SEU-Detect-Correct/build/stm32f4xx_usart.o
                0x080112e0                USART_ClockStructInit
 *(.text.USART_Cmd)
 *fill*         0x08011324       0x1c 
 .text.USART_Cmd
                0x08011340       0x58 /home/jon/dev_src/SEU-Detect-Correct/build/stm32f4xx_usart.o
                0x08011340                USART_Cmd
 *(.text.USART_DeInit)
 *fill*         0x08011398        0x8 
 .text.USART_DeInit
                0x080113a0       0xec /home/jon/dev_src/SEU-Detect-Correct/build/stm32f4xx_usart.o
                0x080113a0                USART_DeInit
 *(.text.USART_DMACmd)
 *fill*         0x0801148c       0x14 
 .text.USART_DMACmd
                0x080114a0       0x60 /home/jon/dev_src/SEU-Detect-Correct/build/stm32f4xx_usart.o
                0x080114a0                USART_DMACmd
 *(.text.USART_GetFlagStatus)
 .text.USART_GetFlagStatus
                0x08011500       0x50 /home/jon/dev_src/SEU-Detect-Correct/build/stm32f4xx_usart.o
                0x08011500                USART_GetFlagStatus
 *(.text.USART_GetITStatus)
 *fill*         0x08011550       0x10 
 .text.USART_GetITStatus
                0x08011560       0xd0 /home/jon/dev_src/SEU-Detect-Correct/build/stm32f4xx_usart.o
                0x08011560                USART_GetITStatus
 *(.text.USART_HalfDuplexCmd)
 *fill*         0x08011630       0x10 
 .text.USART_HalfDuplexCmd
                0x08011640       0x58 /home/jon/dev_src/SEU-Detect-Correct/build/stm32f4xx_usart.o
                0x08011640                USART_HalfDuplexCmd
 *(.text.USART_Init)
 *fill*         0x08011698        0x8 
 .text.USART_Init
                0x080116a0      0x194 /home/jon/dev_src/SEU-Detect-Correct/build/stm32f4xx_usart.o
                0x080116a0                USART_Init
 *(.text.USART_IrDACmd)
 *fill*         0x08011834        0xc 
 .text.USART_IrDACmd
                0x08011840       0x58 /home/jon/dev_src/SEU-Detect-Correct/build/stm32f4xx_usart.o
                0x08011840                USART_IrDACmd
 *(.text.USART_IrDAConfig)
 *fill*         0x08011898        0x8 
 .text.USART_IrDAConfig
                0x080118a0       0x50 /home/jon/dev_src/SEU-Detect-Correct/build/stm32f4xx_usart.o
                0x080118a0                USART_IrDAConfig
 *(.text.USART_ITConfig)
 *fill*         0x080118f0       0x10 
 .text.USART_ITConfig
                0x08011900       0xa8 /home/jon/dev_src/SEU-Detect-Correct/build/stm32f4xx_usart.o
                0x08011900                USART_ITConfig
 *(.text.USART_LINBreakDetectLengthConfig)
 *fill*         0x080119a8       0x18 
 .text.USART_LINBreakDetectLengthConfig
                0x080119c0       0x50 /home/jon/dev_src/SEU-Detect-Correct/build/stm32f4xx_usart.o
                0x080119c0                USART_LINBreakDetectLengthConfig
 *(.text.USART_LINCmd)
 *fill*         0x08011a10       0x10 
 .text.USART_LINCmd
                0x08011a20       0x58 /home/jon/dev_src/SEU-Detect-Correct/build/stm32f4xx_usart.o
                0x08011a20                USART_LINCmd
 *(.text.USART_OneBitMethodCmd)
 *fill*         0x08011a78        0x8 
 .text.USART_OneBitMethodCmd
                0x08011a80       0x58 /home/jon/dev_src/SEU-Detect-Correct/build/stm32f4xx_usart.o
                0x08011a80                USART_OneBitMethodCmd
 *(.text.USART_OverSampling8Cmd)
 *fill*         0x08011ad8        0x8 
 .text.USART_OverSampling8Cmd
                0x08011ae0       0x5c /home/jon/dev_src/SEU-Detect-Correct/build/stm32f4xx_usart.o
                0x08011ae0                USART_OverSampling8Cmd
 *(.text.USART_ReceiveData)
 *fill*         0x08011b3c        0x4 
 .text.USART_ReceiveData
                0x08011b40       0x38 /home/jon/dev_src/SEU-Detect-Correct/build/stm32f4xx_usart.o
                0x08011b40                USART_ReceiveData
 *(.text.USART_ReceiverWakeUpCmd)
 *fill*         0x08011b78        0x8 
 .text.USART_ReceiverWakeUpCmd
                0x08011b80       0x58 /home/jon/dev_src/SEU-Detect-Correct/build/stm32f4xx_usart.o
                0x08011b80                USART_ReceiverWakeUpCmd
 *(.text.USART_SendBreak)
 *fill*         0x08011bd8        0x8 
 .text.USART_SendBreak
                0x08011be0       0x3c /home/jon/dev_src/SEU-Detect-Correct/build/stm32f4xx_usart.o
                0x08011be0                USART_SendBreak
 *(.text.USART_SendData)
 *fill*         0x08011c1c        0x4 
 .text.USART_SendData
                0x08011c20       0x3c /home/jon/dev_src/SEU-Detect-Correct/build/stm32f4xx_usart.o
                0x08011c20                USART_SendData
 *(.text.USART_SetAddress)
 *fill*         0x08011c5c        0x4 
 .text.USART_SetAddress
                0x08011c60       0x50 /home/jon/dev_src/SEU-Detect-Correct/build/stm32f4xx_usart.o
                0x08011c60                USART_SetAddress
 *(.text.USART_SetGuardTime)
 *fill*         0x08011cb0       0x10 
 .text.USART_SetGuardTime
                0x08011cc0       0x54 /home/jon/dev_src/SEU-Detect-Correct/build/stm32f4xx_usart.o
                0x08011cc0                USART_SetGuardTime
 *(.text.USART_SetPrescaler)
 *fill*         0x08011d14        0xc 
 .text.USART_SetPrescaler
                0x08011d20       0x50 /home/jon/dev_src/SEU-Detect-Correct/build/stm32f4xx_usart.o
                0x08011d20                USART_SetPrescaler
 *(.text.USART_SmartCardCmd)
 *fill*         0x08011d70       0x10 
 .text.USART_SmartCardCmd
                0x08011d80       0x58 /home/jon/dev_src/SEU-Detect-Correct/build/stm32f4xx_usart.o
                0x08011d80                USART_SmartCardCmd
 *(.text.USART_SmartCardNACKCmd)
 *fill*         0x08011dd8        0x8 
 .text.USART_SmartCardNACKCmd
                0x08011de0       0x58 /home/jon/dev_src/SEU-Detect-Correct/build/stm32f4xx_usart.o
                0x08011de0                USART_SmartCardNACKCmd
 *(.text.USART_StructInit)
 *fill*         0x08011e38        0x8 
 .text.USART_StructInit
                0x08011e40       0x50 /home/jon/dev_src/SEU-Detect-Correct/build/stm32f4xx_usart.o
                0x08011e40                USART_StructInit
 *(.text.USART_WakeUpConfig)
 *fill*         0x08011e90       0x10 
 .text.USART_WakeUpConfig
                0x08011ea0       0x50 /home/jon/dev_src/SEU-Detect-Correct/build/stm32f4xx_usart.o
                0x08011ea0                USART_WakeUpConfig
 *(.text.uxEventGroupGetNumber)
 *fill*         0x08011ef0       0x10 
 .text.uxEventGroupGetNumber
                0x08011f00       0x44 /home/jon/dev_src/SEU-Detect-Correct/build/event_groups.o
                0x08011f00                uxEventGroupGetNumber
 *(.text.uxListRemove)
 *fill*         0x08011f44       0x1c 
 .text.uxListRemove
                0x08011f60       0x6c /home/jon/dev_src/SEU-Detect-Correct/build/list.o
                0x08011f60                uxListRemove
 *(.text.uxQueueGetQueueNumber)
 *fill*         0x08011fcc       0x14 
 .text.uxQueueGetQueueNumber
                0x08011fe0       0x30 /home/jon/dev_src/SEU-Detect-Correct/build/queue.o
                0x08011fe0                uxQueueGetQueueNumber
 *(.text.uxQueueMessagesWaiting)
 *fill*         0x08012010       0x10 
 .text.uxQueueMessagesWaiting
                0x08012020       0x70 /home/jon/dev_src/SEU-Detect-Correct/build/queue.o
                0x08012020                uxQueueMessagesWaiting
 *(.text.uxQueueMessagesWaitingFromISR)
 *fill*         0x08012090       0x10 
 .text.uxQueueMessagesWaitingFromISR
                0x080120a0       0x68 /home/jon/dev_src/SEU-Detect-Correct/build/queue.o
                0x080120a0                uxQueueMessagesWaitingFromISR
 *(.text.uxQueueSpacesAvailable)
 *fill*         0x08012108       0x18 
 .text.uxQueueSpacesAvailable
                0x08012120       0x78 /home/jon/dev_src/SEU-Detect-Correct/build/queue.o
                0x08012120                uxQueueSpacesAvailable
 *(.text.uxTaskGetNumberOfTasks)
 *fill*         0x08012198        0x8 
 .text.uxTaskGetNumberOfTasks
                0x080121a0       0x2c /home/jon/dev_src/SEU-Detect-Correct/build/tasks.o
                0x080121a0                uxTaskGetNumberOfTasks
 *(.text.uxTaskGetSystemState)
 *fill*         0x080121cc       0x14 
 .text.uxTaskGetSystemState
                0x080121e0      0x110 /home/jon/dev_src/SEU-Detect-Correct/build/tasks.o
                0x080121e0                uxTaskGetSystemState
 *(.text.uxTaskGetTaskNumber)
 *fill*         0x080122f0       0x10 
 .text.uxTaskGetTaskNumber
                0x08012300       0x44 /home/jon/dev_src/SEU-Detect-Correct/build/tasks.o
                0x08012300                uxTaskGetTaskNumber
 *(.text.uxTaskPriorityGet)
 *fill*         0x08012344       0x1c 
 .text.uxTaskPriorityGet
                0x08012360       0x50 /home/jon/dev_src/SEU-Detect-Correct/build/tasks.o
                0x08012360                uxTaskPriorityGet
 *(.text.uxTaskPriorityGetFromISR)
 *fill*         0x080123b0       0x10 
 .text.uxTaskPriorityGetFromISR
                0x080123c0       0xa4 /home/jon/dev_src/SEU-Detect-Correct/build/tasks.o
                0x080123c0                uxTaskPriorityGetFromISR
 *(.text.uxTaskResetEventItemValue)
 *fill*         0x08012464       0x1c 
 .text.uxTaskResetEventItemValue
                0x08012480       0x48 /home/jon/dev_src/SEU-Detect-Correct/build/tasks.o
                0x08012480                uxTaskResetEventItemValue
 *(.text.vApplicationIdleHook)
 *fill*         0x080124c8       0x18 
 .text.vApplicationIdleHook
                0x080124e0       0x24 /home/jon/dev_src/SEU-Detect-Correct/build/main.o
                0x080124e0                vApplicationIdleHook
 *(.text.vApplicationMallocFailedHook)
 *fill*         0x08012504       0x1c 
 .text.vApplicationMallocFailedHook
                0x08012520       0x44 /home/jon/dev_src/SEU-Detect-Correct/build/main.o
                0x08012520                vApplicationMallocFailedHook
 *(.text.vApplicationStackOverflowHook)
 *fill*         0x08012564       0x1c 
 .text.vApplicationStackOverflowHook
                0x08012580       0x48 /home/jon/dev_src/SEU-Detect-Correct/build/main.o
                0x08012580                vApplicationStackOverflowHook
 *(.text.vApplicationTickHook)
 *fill*         0x080125c8       0x18 
 .text.vApplicationTickHook
                0x080125e0       0x24 /home/jon/dev_src/SEU-Detect-Correct/build/main.o
                0x080125e0                vApplicationTickHook
 *(.text.vEventGroupClearBitsCallback)
 *fill*         0x08012604       0x1c 
 .text.vEventGroupClearBitsCallback
                0x08012620       0x34 /home/jon/dev_src/SEU-Detect-Correct/build/event_groups.o
                0x08012620                vEventGroupClearBitsCallback
 *(.text.vEventGroupDelete)
 *fill*         0x08012654        0xc 
 .text.vEventGroupDelete
                0x08012660       0x94 /home/jon/dev_src/SEU-Detect-Correct/build/event_groups.o
                0x08012660                vEventGroupDelete
 *(.text.vEventGroupSetBitsCallback)
 *fill*         0x080126f4        0xc 
 .text.vEventGroupSetBitsCallback
                0x08012700       0x34 /home/jon/dev_src/SEU-Detect-Correct/build/event_groups.o
                0x08012700                vEventGroupSetBitsCallback
 *(.text.vListInitialise)
 *fill*         0x08012734        0xc 
 .text.vListInitialise
                0x08012740       0x58 /home/jon/dev_src/SEU-Detect-Correct/build/list.o
                0x08012740                vListInitialise
 *(.text.vListInitialiseItem)
 *fill*         0x08012798        0x8 
 .text.vListInitialiseItem
                0x080127a0       0x30 /home/jon/dev_src/SEU-Detect-Correct/build/list.o
                0x080127a0                vListInitialiseItem
 *(.text.vListInsert)
 *fill*         0x080127d0       0x10 
 .text.vListInsert
                0x080127e0       0x88 /home/jon/dev_src/SEU-Detect-Correct/build/list.o
                0x080127e0                vListInsert
 *(.text.vListInsertEnd)
 *fill*         0x08012868       0x18 
 .text.vListInsertEnd
                0x08012880       0x60 /home/jon/dev_src/SEU-Detect-Correct/build/list.o
                0x08012880                vListInsertEnd
 *(.text.vPortEnableVFP)
 .text.vPortEnableVFP
                0x080128e0       0x30 /home/jon/dev_src/SEU-Detect-Correct/build/port.o
 *(.text.vPortEndScheduler)
 *fill*         0x08012910       0x10 
 .text.vPortEndScheduler
                0x08012920       0x64 /home/jon/dev_src/SEU-Detect-Correct/build/port.o
                0x08012920                vPortEndScheduler
 *(.text.vPortEnterCritical)
 *fill*         0x08012984       0x1c 
 .text.vPortEnterCritical
                0x080129a0       0xa0 /home/jon/dev_src/SEU-Detect-Correct/build/port.o
                0x080129a0                vPortEnterCritical
 *(.text.vPortExitCritical)
 .text.vPortExitCritical
                0x08012a40       0x94 /home/jon/dev_src/SEU-Detect-Correct/build/port.o
                0x08012a40                vPortExitCritical
 *(.text.vPortFree)
 *fill*         0x08012ad4        0xc 
 .text.vPortFree
                0x08012ae0       0xf8 /home/jon/dev_src/SEU-Detect-Correct/build/heap_4.o
                0x08012ae0                vPortFree
 *(.text.vPortInitialiseBlocks)
 *fill*         0x08012bd8        0x8 
 .text.vPortInitialiseBlocks
                0x08012be0       0x24 /home/jon/dev_src/SEU-Detect-Correct/build/heap_4.o
                0x08012be0                vPortInitialiseBlocks
 *(.text.vPortSetupTimerInterrupt)
 *fill*         0x08012c04       0x1c 
 .text.vPortSetupTimerInterrupt
                0x08012c20       0x4c /home/jon/dev_src/SEU-Detect-Correct/build/port.o
                0x08012c20                vPortSetupTimerInterrupt
 *(.text.vPortValidateInterruptPriority)
 *fill*         0x08012c6c       0x14 
 .text.vPortValidateInterruptPriority
                0x08012c80       0xbc /home/jon/dev_src/SEU-Detect-Correct/build/port.o
                0x08012c80                vPortValidateInterruptPriority
 *(.text.vQueueAddToRegistry)
 *fill*         0x08012d3c        0x4 
 .text.vQueueAddToRegistry
                0x08012d40       0x68 /home/jon/dev_src/SEU-Detect-Correct/build/queue.o
                0x08012d40                vQueueAddToRegistry
 *(.text.vQueueDelete)
 *fill*         0x08012da8       0x18 
 .text.vQueueDelete
                0x08012dc0       0x6c /home/jon/dev_src/SEU-Detect-Correct/build/queue.o
                0x08012dc0                vQueueDelete
 *(.text.vQueueSetQueueNumber)
 *fill*         0x08012e2c       0x14 
 .text.vQueueSetQueueNumber
                0x08012e40       0x34 /home/jon/dev_src/SEU-Detect-Correct/build/queue.o
                0x08012e40                vQueueSetQueueNumber
 *(.text.vQueueUnregisterQueue)
 *fill*         0x08012e74        0xc 
 .text.vQueueUnregisterQueue
                0x08012e80       0x5c /home/jon/dev_src/SEU-Detect-Correct/build/queue.o
                0x08012e80                vQueueUnregisterQueue
 *(.text.vQueueWaitForMessageRestricted)
 *fill*         0x08012edc        0x4 
 .text.vQueueWaitForMessageRestricted
                0x08012ee0       0x74 /home/jon/dev_src/SEU-Detect-Correct/build/queue.o
                0x08012ee0                vQueueWaitForMessageRestricted
 *(.text.vTaskDelay)
 *fill*         0x08012f54        0xc 
 .text.vTaskDelay
                0x08012f60       0xd8 /home/jon/dev_src/SEU-Detect-Correct/build/tasks.o
                0x08012f60                vTaskDelay
 *(.text.vTaskDelayUntil)
 *fill*         0x08013038        0x8 
 .text.vTaskDelayUntil
                0x08013040      0x178 /home/jon/dev_src/SEU-Detect-Correct/build/tasks.o
                0x08013040                vTaskDelayUntil
 *(.text.vTaskDelete)
 *fill*         0x080131b8        0x8 
 .text.vTaskDelete
                0x080131c0      0x138 /home/jon/dev_src/SEU-Detect-Correct/build/tasks.o
                0x080131c0                vTaskDelete
 *(.text.vTaskEndScheduler)
 *fill*         0x080132f8        0x8 
 .text.vTaskEndScheduler
                0x08013300       0x60 /home/jon/dev_src/SEU-Detect-Correct/build/tasks.o
                0x08013300                vTaskEndScheduler
 *(.text.vTaskMissedYield)
 .text.vTaskMissedYield
                0x08013360       0x2c /home/jon/dev_src/SEU-Detect-Correct/build/tasks.o
                0x08013360                vTaskMissedYield
 *(.text.vTaskNotifyGiveFromISR)
 *fill*         0x0801338c       0x14 
 .text.vTaskNotifyGiveFromISR
                0x080133a0      0x188 /home/jon/dev_src/SEU-Detect-Correct/build/tasks.o
                0x080133a0                vTaskNotifyGiveFromISR
 *(.text.vTaskPlaceOnEventList)
 *fill*         0x08013528       0x18 
 .text.vTaskPlaceOnEventList
                0x08013540       0xd0 /home/jon/dev_src/SEU-Detect-Correct/build/tasks.o
                0x08013540                vTaskPlaceOnEventList
 *(.text.vTaskPlaceOnEventListRestricted)
 *fill*         0x08013610       0x10 
 .text.vTaskPlaceOnEventListRestricted
                0x08013620       0xb4 /home/jon/dev_src/SEU-Detect-Correct/build/tasks.o
                0x08013620                vTaskPlaceOnEventListRestricted
 *(.text.vTaskPlaceOnUnorderedEventList)
 *fill*         0x080136d4        0xc 
 .text.vTaskPlaceOnUnorderedEventList
                0x080136e0      0x110 /home/jon/dev_src/SEU-Detect-Correct/build/tasks.o
                0x080136e0                vTaskPlaceOnUnorderedEventList
 *(.text.vTaskPriorityInherit)
 *fill*         0x080137f0       0x10 
 .text.vTaskPriorityInherit
                0x08013800      0x108 /home/jon/dev_src/SEU-Detect-Correct/build/tasks.o
                0x08013800                vTaskPriorityInherit
 *(.text.vTaskPrioritySet)
 *fill*         0x08013908       0x18 
 .text.vTaskPrioritySet
                0x08013920      0x18c /home/jon/dev_src/SEU-Detect-Correct/build/tasks.o
                0x08013920                vTaskPrioritySet
 *(.text.vTaskResume)
 *fill*         0x08013aac       0x14 
 .text.vTaskResume
                0x08013ac0       0xec /home/jon/dev_src/SEU-Detect-Correct/build/tasks.o
                0x08013ac0                vTaskResume
 *(.text.vTaskSetTaskNumber)
 *fill*         0x08013bac       0x14 
 .text.vTaskSetTaskNumber
                0x08013bc0       0x3c /home/jon/dev_src/SEU-Detect-Correct/build/tasks.o
                0x08013bc0                vTaskSetTaskNumber
 *(.text.vTaskSetTimeOutState)
 *fill*         0x08013bfc        0x4 
 .text.vTaskSetTimeOutState
                0x08013c00       0x74 /home/jon/dev_src/SEU-Detect-Correct/build/tasks.o
                0x08013c00                vTaskSetTimeOutState
 *(.text.vTaskStartScheduler)
 *fill*         0x08013c74        0xc 
 .text.vTaskStartScheduler
                0x08013c80       0xd4 /home/jon/dev_src/SEU-Detect-Correct/build/tasks.o
                0x08013c80                vTaskStartScheduler
 *(.text.vTaskSuspend)
 *fill*         0x08013d54        0xc 
 .text.vTaskSuspend
                0x08013d60      0x144 /home/jon/dev_src/SEU-Detect-Correct/build/tasks.o
                0x08013d60                vTaskSuspend
 *(.text.vTaskSuspendAll)
 *fill*         0x08013ea4       0x1c 
 .text.vTaskSuspendAll
                0x08013ec0       0x30 /home/jon/dev_src/SEU-Detect-Correct/build/tasks.o
                0x08013ec0                vTaskSuspendAll
 *(.text.vTaskSwitchContext)
 *fill*         0x08013ef0       0x10 
 .text.vTaskSwitchContext
                0x08013f00      0x14c /home/jon/dev_src/SEU-Detect-Correct/build/tasks.o
                0x08013f00                vTaskSwitchContext
 *(.text._write)
 *fill*         0x0801404c       0x14 
 .text._write   0x08014060       0x78 /home/jon/dev_src/SEU-Detect-Correct/build/syscalls.o
                0x08014060                _write
 *(.text._write_r)
 .text._write_r
                0x080140d8       0x2c /home/jon/gcc-arm-none-eabi-5_2-2015q4/arm-none-eabi/lib/armv7e-m/fpu/libc.a(lib_a-writer.o)
                0x080140d8                _write_r
 *(.text.WWDG_IRQHandler)
 *(.text.xEventGroupClearBits)
 *fill*         0x08014104       0x1c 
 .text.xEventGroupClearBits
                0x08014120       0xb4 /home/jon/dev_src/SEU-Detect-Correct/build/event_groups.o
                0x08014120                xEventGroupClearBits
 *(.text.xEventGroupCreate)
 *fill*         0x080141d4        0xc 
 .text.xEventGroupCreate
                0x080141e0       0x4c /home/jon/dev_src/SEU-Detect-Correct/build/event_groups.o
                0x080141e0                xEventGroupCreate
 *(.text.xEventGroupGetBitsFromISR)
 *fill*         0x0801422c       0x14 
 .text.xEventGroupGetBitsFromISR
                0x08014240       0x90 /home/jon/dev_src/SEU-Detect-Correct/build/event_groups.o
                0x08014240                xEventGroupGetBitsFromISR
 *(.text.xEventGroupSetBits)
 *fill*         0x080142d0       0x10 
 .text.xEventGroupSetBits
                0x080142e0      0x15c /home/jon/dev_src/SEU-Detect-Correct/build/event_groups.o
                0x080142e0                xEventGroupSetBits
 *(.text.xEventGroupSync)
 *fill*         0x0801443c        0x4 
 .text.xEventGroupSync
                0x08014440      0x1b0 /home/jon/dev_src/SEU-Detect-Correct/build/event_groups.o
                0x08014440                xEventGroupSync
 *(.text.xEventGroupWaitBits)
 *fill*         0x080145f0       0x10 
 .text.xEventGroupWaitBits
                0x08014600      0x200 /home/jon/dev_src/SEU-Detect-Correct/build/event_groups.o
                0x08014600                xEventGroupWaitBits
 *(.text.xPortGetFreeHeapSize)
 .text.xPortGetFreeHeapSize
                0x08014800       0x2c /home/jon/dev_src/SEU-Detect-Correct/build/heap_4.o
                0x08014800                xPortGetFreeHeapSize
 *(.text.xPortGetMinimumEverFreeHeapSize)
 *fill*         0x0801482c       0x14 
 .text.xPortGetMinimumEverFreeHeapSize
                0x08014840       0x2c /home/jon/dev_src/SEU-Detect-Correct/build/heap_4.o
                0x08014840                xPortGetMinimumEverFreeHeapSize
 *(.text.xPortStartScheduler)
 *fill*         0x0801486c       0x14 
 .text.xPortStartScheduler
                0x08014880       0xec /home/jon/dev_src/SEU-Detect-Correct/build/port.o
                0x08014880                xPortStartScheduler
 *(.text.xQueueCreateCountingSemaphore)
 *fill*         0x0801496c       0x14 
 .text.xQueueCreateCountingSemaphore
                0x08014980       0xd8 /home/jon/dev_src/SEU-Detect-Correct/build/queue.o
                0x08014980                xQueueCreateCountingSemaphore
 *(.text.xQueueCreateMutex)
 *fill*         0x08014a58        0x8 
 .text.xQueueCreateMutex
                0x08014a60       0xd4 /home/jon/dev_src/SEU-Detect-Correct/build/queue.o
                0x08014a60                xQueueCreateMutex
 *(.text.xQueueGenericCreate)
 *fill*         0x08014b34        0xc 
 .text.xQueueGenericCreate
                0x08014b40      0x100 /home/jon/dev_src/SEU-Detect-Correct/build/queue.o
                0x08014b40                xQueueGenericCreate
 *(.text.xQueueGenericReceive)
 .text.xQueueGenericReceive
                0x08014c40      0x264 /home/jon/dev_src/SEU-Detect-Correct/build/queue.o
                0x08014c40                xQueueGenericReceive
 *(.text.xQueueGenericReset)
 *fill*         0x08014ea4       0x1c 
 .text.xQueueGenericReset
                0x08014ec0      0x104 /home/jon/dev_src/SEU-Detect-Correct/build/queue.o
                0x08014ec0                xQueueGenericReset
 *(.text.xQueueGenericSend)
 *fill*         0x08014fc4       0x1c 
 .text.xQueueGenericSend
                0x08014fe0      0x258 /home/jon/dev_src/SEU-Detect-Correct/build/queue.o
                0x08014fe0                xQueueGenericSend
 *(.text.xQueueGenericSendFromISR)
 *fill*         0x08015238        0x8 
 .text.xQueueGenericSendFromISR
                0x08015240      0x1a4 /home/jon/dev_src/SEU-Detect-Correct/build/queue.o
                0x08015240                xQueueGenericSendFromISR
 *(.text.xQueueGiveFromISR)
 *fill*         0x080153e4       0x1c 
 .text.xQueueGiveFromISR
                0x08015400      0x14c /home/jon/dev_src/SEU-Detect-Correct/build/queue.o
                0x08015400                xQueueGiveFromISR
 *(.text.xQueueGiveMutexRecursive)
 *fill*         0x0801554c       0x14 
 .text.xQueueGiveMutexRecursive
                0x08015560       0x9c /home/jon/dev_src/SEU-Detect-Correct/build/queue.o
                0x08015560                xQueueGiveMutexRecursive
 *(.text.xQueueIsQueueEmptyFromISR)
 *fill*         0x080155fc        0x4 
 .text.xQueueIsQueueEmptyFromISR
                0x08015600       0x74 /home/jon/dev_src/SEU-Detect-Correct/build/queue.o
                0x08015600                xQueueIsQueueEmptyFromISR
 *(.text.xQueueIsQueueFullFromISR)
 *fill*         0x08015674        0xc 
 .text.xQueueIsQueueFullFromISR
                0x08015680       0x78 /home/jon/dev_src/SEU-Detect-Correct/build/queue.o
                0x08015680                xQueueIsQueueFullFromISR
 *(.text.xQueuePeekFromISR)
 *fill*         0x080156f8        0x8 
 .text.xQueuePeekFromISR
                0x08015700      0x158 /home/jon/dev_src/SEU-Detect-Correct/build/queue.o
                0x08015700                xQueuePeekFromISR
 *(.text.xQueueReceiveFromISR)
 *fill*         0x08015858        0x8 
 .text.xQueueReceiveFromISR
                0x08015860      0x160 /home/jon/dev_src/SEU-Detect-Correct/build/queue.o
                0x08015860                xQueueReceiveFromISR
 *(.text.xQueueTakeMutexRecursive)
 .text.xQueueTakeMutexRecursive
                0x080159c0       0xa4 /home/jon/dev_src/SEU-Detect-Correct/build/queue.o
                0x080159c0                xQueueTakeMutexRecursive
 *(.text.xTaskCheckForTimeOut)
 *fill*         0x08015a64       0x1c 
 .text.xTaskCheckForTimeOut
                0x08015a80      0x104 /home/jon/dev_src/SEU-Detect-Correct/build/tasks.o
                0x08015a80                xTaskCheckForTimeOut
 *(.text.xTaskGenericCreate)
 *fill*         0x08015b84       0x1c 
 .text.xTaskGenericCreate
                0x08015ba0      0x1fc /home/jon/dev_src/SEU-Detect-Correct/build/tasks.o
                0x08015ba0                xTaskGenericCreate
 *(.text.xTaskGetCurrentTaskHandle)
 *fill*         0x08015d9c        0x4 
 .text.xTaskGetCurrentTaskHandle
                0x08015da0       0x38 /home/jon/dev_src/SEU-Detect-Correct/build/tasks.o
                0x08015da0                xTaskGetCurrentTaskHandle
 *(.text.xTaskGetSchedulerState)
 *fill*         0x08015dd8        0x8 
 .text.xTaskGetSchedulerState
                0x08015de0       0x54 /home/jon/dev_src/SEU-Detect-Correct/build/tasks.o
                0x08015de0                xTaskGetSchedulerState
 *(.text.xTaskGetTickCount)
 *fill*         0x08015e34        0xc 
 .text.xTaskGetTickCount
                0x08015e40       0x38 /home/jon/dev_src/SEU-Detect-Correct/build/tasks.o
                0x08015e40                xTaskGetTickCount
 *(.text.xTaskGetTickCountFromISR)
 *fill*         0x08015e78        0x8 
 .text.xTaskGetTickCountFromISR
                0x08015e80       0x40 /home/jon/dev_src/SEU-Detect-Correct/build/tasks.o
                0x08015e80                xTaskGetTickCountFromISR
 *(.text.xTaskIncrementTick)
 .text.xTaskIncrementTick
                0x08015ec0      0x1c0 /home/jon/dev_src/SEU-Detect-Correct/build/tasks.o
                0x08015ec0                xTaskIncrementTick
 *(.text.xTaskNotify)
 .text.xTaskNotify
                0x08016080      0x178 /home/jon/dev_src/SEU-Detect-Correct/build/tasks.o
                0x08016080                xTaskNotify
 *(.text.xTaskNotifyFromISR)
 *fill*         0x080161f8        0x8 
 .text.xTaskNotifyFromISR
                0x08016200      0x1e8 /home/jon/dev_src/SEU-Detect-Correct/build/tasks.o
                0x08016200                xTaskNotifyFromISR
 *(.text.xTaskNotifyWait)
 *fill*         0x080163e8       0x18 
 .text.xTaskNotifyWait
                0x08016400      0x128 /home/jon/dev_src/SEU-Detect-Correct/build/tasks.o
                0x08016400                xTaskNotifyWait
 *(.text.xTaskPriorityDisinherit)
 *fill*         0x08016528       0x18 
 .text.xTaskPriorityDisinherit
                0x08016540      0x118 /home/jon/dev_src/SEU-Detect-Correct/build/tasks.o
                0x08016540                xTaskPriorityDisinherit
 *(.text.xTaskRemoveFromEventList)
 *fill*         0x08016658        0x8 
 .text.xTaskRemoveFromEventList
                0x08016660       0xf8 /home/jon/dev_src/SEU-Detect-Correct/build/tasks.o
                0x08016660                xTaskRemoveFromEventList
 *(.text.xTaskRemoveFromUnorderedEventList)
 *fill*         0x08016758        0x8 
 .text.xTaskRemoveFromUnorderedEventList
                0x08016760      0x114 /home/jon/dev_src/SEU-Detect-Correct/build/tasks.o
                0x08016760                xTaskRemoveFromUnorderedEventList
 *(.text.xTaskResumeAll)
 *fill*         0x08016874        0xc 
 .text.xTaskResumeAll
                0x08016880      0x15c /home/jon/dev_src/SEU-Detect-Correct/build/tasks.o
                0x08016880                xTaskResumeAll
 *(.text.xTaskResumeFromISR)
 *fill*         0x080169dc        0x4 
 .text.xTaskResumeFromISR
                0x080169e0      0x144 /home/jon/dev_src/SEU-Detect-Correct/build/tasks.o
                0x080169e0                xTaskResumeFromISR
 *(.text.xTimerCreate)
 *fill*         0x08016b24       0x1c 
 .text.xTimerCreate
                0x08016b40       0xac /home/jon/dev_src/SEU-Detect-Correct/build/timers.o
                0x08016b40                xTimerCreate
 *(.text.xTimerCreateTimerTask)
 *fill*         0x08016bec       0x14 
 .text.xTimerCreateTimerTask
                0x08016c00       0x9c /home/jon/dev_src/SEU-Detect-Correct/build/timers.o
                0x08016c00                xTimerCreateTimerTask
 *(.text.xTimerGenericCommand)
 *fill*         0x08016c9c        0x4 
 .text.xTimerGenericCommand
                0x08016ca0       0x9c /home/jon/dev_src/SEU-Detect-Correct/build/timers.o
                0x08016ca0                xTimerGenericCommand
 *(.text.xTimerIsTimerActive)
 *fill*         0x08016d3c        0x4 
 .text.xTimerIsTimerActive
                0x08016d40       0x4c /home/jon/dev_src/SEU-Detect-Correct/build/timers.o
                0x08016d40                xTimerIsTimerActive

.text           0x080e0000      0x8c0
                0x080e0000                . = ALIGN (0x4)
                0x080e0000                _text = .
                [!provide]                PROVIDE (stext, .)
 *(.isr_vector)
 .isr_vector    0x080e0000      0x188 /home/jon/dev_src/SEU-Detect-Correct/build/startup_stm32f4xx.o
                0x080e0000                g_pfnVectors
 *(.rodata .rodata.*)
 .rodata        0x080e0188       0x39 /home/jon/dev_src/SEU-Detect-Correct/build/main.o
 *fill*         0x080e01c1        0x3 
 .rodata.pcInterruptPriorityRegisters
                0x080e01c4        0x4 /home/jon/dev_src/SEU-Detect-Correct/build/port.o
 .rodata        0x080e01c8        0x5 /home/jon/dev_src/SEU-Detect-Correct/build/tasks.o
 *fill*         0x080e01cd        0x3 
 .rodata.ucExpectedStackBytes.5483
                0x080e01d0       0x14 /home/jon/dev_src/SEU-Detect-Correct/build/tasks.o
 .rodata        0x080e01e4        0xd /home/jon/dev_src/SEU-Detect-Correct/build/timers.o
 *fill*         0x080e01f1        0x3 
 .rodata.xHeapStructSize
                0x080e01f4        0x4 /home/jon/dev_src/SEU-Detect-Correct/build/heap_4.o
 .rodata.str1.4
                0x080e01f8        0x2 /home/jon/gcc-arm-none-eabi-5_2-2015q4/arm-none-eabi/lib/armv7e-m/fpu/libc.a(lib_a-impure.o)
 *fill*         0x080e01fa        0x2 
 .rodata._global_impure_ptr
                0x080e01fc        0x4 /home/jon/gcc-arm-none-eabi-5_2-2015q4/arm-none-eabi/lib/armv7e-m/fpu/libc.a(lib_a-impure.o)
                0x080e01fc                _global_impure_ptr
 .rodata.str1.4
                0x080e0200        0x4 /home/jon/gcc-arm-none-eabi-5_2-2015q4/arm-none-eabi/lib/armv7e-m/fpu/libc.a(lib_a-puts.o)
                                  0x2 (size before relaxing)
 .rodata.npio2_hw
                0x080e0204       0x80 /home/jon/gcc-arm-none-eabi-5_2-2015q4/arm-none-eabi/lib/armv7e-m/fpu/libm.a(lib_a-ef_rem_pio2.o)
 .rodata.two_over_pi
                0x080e0284      0x318 /home/jon/gcc-arm-none-eabi-5_2-2015q4/arm-none-eabi/lib/armv7e-m/fpu/libm.a(lib_a-ef_rem_pio2.o)
 .rodata.init_jk
                0x080e059c        0xc /home/jon/gcc-arm-none-eabi-5_2-2015q4/arm-none-eabi/lib/armv7e-m/fpu/libm.a(lib_a-kf_rem_pio2.o)
 .rodata.PIo2   0x080e05a8       0x2c /home/jon/gcc-arm-none-eabi-5_2-2015q4/arm-none-eabi/lib/armv7e-m/fpu/libm.a(lib_a-kf_rem_pio2.o)
 *(.gnu.linkonce.t.*)
 *(.glue_7)
 .glue_7        0x080e05d4        0x0 linker stubs
 *(.glue_7t)
 .glue_7t       0x080e05d4        0x0 linker stubs
 *(.gcc_except_table)
 *(.gnu.linkonce.r.*)
                0x080e05d4                . = ALIGN (0x4)
                0x080e05d4                _exit = .
                0x080e05d4                _etext = .
                0x080e05d4                _sidata = _etext
                [!provide]                PROVIDE (etext, .)
                0x080e05d4                _fini = .
 *(.fini)
 .text          0x080e05d4        0x0 /home/jon/dev_src/SEU-Detect-Correct/build/system_stm32f4xx.o
 .text          0x080e05d4        0x0 /home/jon/dev_src/SEU-Detect-Correct/build/main.o
 .text          0x080e05d4        0x0 /home/jon/dev_src/SEU-Detect-Correct/build/syscalls.o
 .text          0x080e05d4        0x0 /home/jon/dev_src/SEU-Detect-Correct/build/port.o
 .text          0x080e05d4        0x0 /home/jon/dev_src/SEU-Detect-Correct/build/list.o
 .text          0x080e05d4        0x0 /home/jon/dev_src/SEU-Detect-Correct/build/queue.o
 .text          0x080e05d4        0x0 /home/jon/dev_src/SEU-Detect-Correct/build/tasks.o
 .text          0x080e05d4        0x0 /home/jon/dev_src/SEU-Detect-Correct/build/event_groups.o
 .text          0x080e05d4        0x0 /home/jon/dev_src/SEU-Detect-Correct/build/timers.o
 .text          0x080e05d4        0x0 /home/jon/dev_src/SEU-Detect-Correct/build/heap_4.o
 .text          0x080e05d4        0x0 /home/jon/dev_src/SEU-Detect-Correct/build/stm32f4xx_syscfg.o
 .text          0x080e05d4        0x0 /home/jon/dev_src/SEU-Detect-Correct/build/misc.o
 .text          0x080e05d4        0x0 /home/jon/dev_src/SEU-Detect-Correct/build/stm32f4xx_adc.o
 .text          0x080e05d4        0x0 /home/jon/dev_src/SEU-Detect-Correct/build/stm32f4xx_dac.o
 .text          0x080e05d4        0x0 /home/jon/dev_src/SEU-Detect-Correct/build/stm32f4xx_dma.o
 .text          0x080e05d4        0x0 /home/jon/dev_src/SEU-Detect-Correct/build/stm32f4xx_exti.o
 .text          0x080e05d4        0x0 /home/jon/dev_src/SEU-Detect-Correct/build/stm32f4xx_flash.o
 .text          0x080e05d4        0x0 /home/jon/dev_src/SEU-Detect-Correct/build/stm32f4xx_gpio.o
 .text          0x080e05d4        0x0 /home/jon/dev_src/SEU-Detect-Correct/build/stm32f4xx_i2c.o
 .text          0x080e05d4        0x0 /home/jon/dev_src/SEU-Detect-Correct/build/stm32f4xx_rcc.o
 .text          0x080e05d4        0x0 /home/jon/dev_src/SEU-Detect-Correct/build/stm32f4xx_spi.o
 .text          0x080e05d4        0x0 /home/jon/dev_src/SEU-Detect-Correct/build/stm32f4xx_tim.o
 .text          0x080e05d4        0x0 /home/jon/dev_src/SEU-Detect-Correct/build/stm32f4xx_usart.o
 .text          0x080e05d4        0x0 /home/jon/dev_src/SEU-Detect-Correct/build/stm32f4xx_rng.o
 .text          0x080e05d4        0x0 build/trace_functions.o
 .text          0x080e05d4       0x14 /home/jon/dev_src/SEU-Detect-Correct/build/startup_stm32f4xx.o
 .text          0x080e05e8        0x0 /home/jon/gcc-arm-none-eabi-5_2-2015q4/arm-none-eabi/lib/armv7e-m/fpu/libc.a(lib_a-errno.o)
 .text          0x080e05e8        0x0 /home/jon/gcc-arm-none-eabi-5_2-2015q4/arm-none-eabi/lib/armv7e-m/fpu/libc.a(lib_a-impure.o)
 .text          0x080e05e8        0x0 /home/jon/gcc-arm-none-eabi-5_2-2015q4/arm-none-eabi/lib/armv7e-m/fpu/libc.a(lib_a-memcmp.o)
 .text          0x080e05e8      0x134 /home/jon/gcc-arm-none-eabi-5_2-2015q4/arm-none-eabi/lib/armv7e-m/fpu/libc.a(lib_a-memcpy.o)
                0x080e05e8                memcpy
 .text          0x080e071c        0x0 /home/jon/gcc-arm-none-eabi-5_2-2015q4/arm-none-eabi/lib/armv7e-m/fpu/libc.a(lib_a-memset.o)
 .text          0x080e071c        0x0 /home/jon/gcc-arm-none-eabi-5_2-2015q4/arm-none-eabi/lib/armv7e-m/fpu/libc.a(lib_a-puts.o)
 *fill*         0x080e071c       0x24 
 .text          0x080e0740       0xdc /home/jon/gcc-arm-none-eabi-5_2-2015q4/arm-none-eabi/lib/armv7e-m/fpu/libc.a(lib_a-strlen.o)
                0x080e0740                strlen
 .text          0x080e081c        0x0 /home/jon/gcc-arm-none-eabi-5_2-2015q4/arm-none-eabi/lib/armv7e-m/fpu/libc.a(lib_a-findfp.o)
 .text          0x080e081c        0x0 /home/jon/gcc-arm-none-eabi-5_2-2015q4/arm-none-eabi/lib/armv7e-m/fpu/libc.a(lib_a-fvwrite.o)
 .text          0x080e081c        0x0 /home/jon/gcc-arm-none-eabi-5_2-2015q4/arm-none-eabi/lib/armv7e-m/fpu/libc.a(lib_a-fwalk.o)
 .text          0x080e081c        0x0 /home/jon/gcc-arm-none-eabi-5_2-2015q4/arm-none-eabi/lib/armv7e-m/fpu/libc.a(lib_a-mallocr.o)
 *fill*         0x080e081c        0x4 
 .text          0x080e0820       0xa0 /home/jon/gcc-arm-none-eabi-5_2-2015q4/arm-none-eabi/lib/armv7e-m/fpu/libc.a(lib_a-memchr.o)
                0x080e0820                memchr
 .text          0x080e08c0        0x0 /home/jon/gcc-arm-none-eabi-5_2-2015q4/arm-none-eabi/lib/armv7e-m/fpu/libc.a(lib_a-memmove.o)
 .text          0x080e08c0        0x0 /home/jon/gcc-arm-none-eabi-5_2-2015q4/arm-none-eabi/lib/armv7e-m/fpu/libc.a(lib_a-mlock.o)
 .text          0x080e08c0        0x0 /home/jon/gcc-arm-none-eabi-5_2-2015q4/arm-none-eabi/lib/armv7e-m/fpu/libc.a(lib_a-reallocr.o)
 .text          0x080e08c0        0x0 /home/jon/gcc-arm-none-eabi-5_2-2015q4/arm-none-eabi/lib/armv7e-m/fpu/libc.a(lib_a-sbrkr.o)
 .text          0x080e08c0        0x0 /home/jon/gcc-arm-none-eabi-5_2-2015q4/arm-none-eabi/lib/armv7e-m/fpu/libc.a(lib_a-stdio.o)
 .text          0x080e08c0        0x0 /home/jon/gcc-arm-none-eabi-5_2-2015q4/arm-none-eabi/lib/armv7e-m/fpu/libc.a(lib_a-writer.o)
 .text          0x080e08c0        0x0 /home/jon/gcc-arm-none-eabi-5_2-2015q4/arm-none-eabi/lib/armv7e-m/fpu/libc.a(lib_a-wsetup.o)
 .text          0x080e08c0        0x0 /home/jon/gcc-arm-none-eabi-5_2-2015q4/arm-none-eabi/lib/armv7e-m/fpu/libc.a(lib_a-closer.o)
 .text          0x080e08c0        0x0 /home/jon/gcc-arm-none-eabi-5_2-2015q4/arm-none-eabi/lib/armv7e-m/fpu/libc.a(lib_a-fclose.o)
 .text          0x080e08c0        0x0 /home/jon/gcc-arm-none-eabi-5_2-2015q4/arm-none-eabi/lib/armv7e-m/fpu/libc.a(lib_a-fflush.o)
 .text          0x080e08c0        0x0 /home/jon/gcc-arm-none-eabi-5_2-2015q4/arm-none-eabi/lib/armv7e-m/fpu/libc.a(lib_a-freer.o)
 .text          0x080e08c0        0x0 /home/jon/gcc-arm-none-eabi-5_2-2015q4/arm-none-eabi/lib/armv7e-m/fpu/libc.a(lib_a-lseekr.o)
 .text          0x080e08c0        0x0 /home/jon/gcc-arm-none-eabi-5_2-2015q4/arm-none-eabi/lib/armv7e-m/fpu/libc.a(lib_a-makebuf.o)
 .text          0x080e08c0        0x0 /home/jon/gcc-arm-none-eabi-5_2-2015q4/arm-none-eabi/lib/armv7e-m/fpu/libc.a(lib_a-readr.o)
 .text          0x080e08c0        0x0 /home/jon/gcc-arm-none-eabi-5_2-2015q4/arm-none-eabi/lib/armv7e-m/fpu/libc.a(lib_a-reent.o)
 .text          0x080e08c0        0x0 /home/jon/gcc-arm-none-eabi-5_2-2015q4/arm-none-eabi/lib/armv7e-m/fpu/libc.a(lib_a-fstatr.o)
 .text          0x080e08c0        0x0 /home/jon/gcc-arm-none-eabi-5_2-2015q4/arm-none-eabi/lib/armv7e-m/fpu/libc.a(lib_a-isattyr.o)
 .text          0x080e08c0        0x0 /home/jon/gcc-arm-none-eabi-5_2-2015q4/arm-none-eabi/lib/armv7e-m/fpu/libm.a(lib_a-sf_sin.o)
 .text          0x080e08c0        0x0 /home/jon/gcc-arm-none-eabi-5_2-2015q4/arm-none-eabi/lib/armv7e-m/fpu/libm.a(lib_a-ef_rem_pio2.o)
 .text          0x080e08c0        0x0 /home/jon/gcc-arm-none-eabi-5_2-2015q4/arm-none-eabi/lib/armv7e-m/fpu/libm.a(lib_a-kf_cos.o)
 .text          0x080e08c0        0x0 /home/jon/gcc-arm-none-eabi-5_2-2015q4/arm-none-eabi/lib/armv7e-m/fpu/libm.a(lib_a-kf_rem_pio2.o)
 .text          0x080e08c0        0x0 /home/jon/gcc-arm-none-eabi-5_2-2015q4/arm-none-eabi/lib/armv7e-m/fpu/libm.a(lib_a-kf_sin.o)
 .text          0x080e08c0        0x0 /home/jon/gcc-arm-none-eabi-5_2-2015q4/arm-none-eabi/lib/armv7e-m/fpu/libm.a(lib_a-sf_fabs.o)
 .text          0x080e08c0        0x0 /home/jon/gcc-arm-none-eabi-5_2-2015q4/arm-none-eabi/lib/armv7e-m/fpu/libm.a(lib_a-sf_floor.o)
 .text          0x080e08c0        0x0 /home/jon/gcc-arm-none-eabi-5_2-2015q4/arm-none-eabi/lib/armv7e-m/fpu/libm.a(lib_a-sf_scalbn.o)
 .text          0x080e08c0        0x0 /home/jon/gcc-arm-none-eabi-5_2-2015q4/arm-none-eabi/lib/armv7e-m/fpu/libm.a(lib_a-sf_copysign.o)

.vfp11_veneer   0x080e08c0        0x0
 .vfp11_veneer  0x080e08c0        0x0 linker stubs

.v4_bx          0x080e08c0        0x0
 .v4_bx         0x080e08c0        0x0 linker stubs

.iplt           0x080e08c0        0x0
 .iplt          0x080e08c0        0x0 /home/jon/dev_src/SEU-Detect-Correct/build/system_stm32f4xx.o

.text.vPortRaiseBASEPRI
                0x080e08c0      0x1bc
 .text.vPortRaiseBASEPRI
                0x080e08c0       0x3c /home/jon/dev_src/SEU-Detect-Correct/build/main.o
 *fill*         0x080e08fc        0x4 
 .text.vPortRaiseBASEPRI
                0x080e0900       0x3c /home/jon/dev_src/SEU-Detect-Correct/build/port.o
 *fill*         0x080e093c        0x4 
 .text.vPortRaiseBASEPRI
                0x080e0940       0x3c /home/jon/dev_src/SEU-Detect-Correct/build/queue.o
 *fill*         0x080e097c        0x4 
 .text.vPortRaiseBASEPRI
                0x080e0980       0x3c /home/jon/dev_src/SEU-Detect-Correct/build/tasks.o
 *fill*         0x080e09bc        0x4 
 .text.vPortRaiseBASEPRI
                0x080e09c0       0x3c /home/jon/dev_src/SEU-Detect-Correct/build/event_groups.o
 *fill*         0x080e09fc        0x4 
 .text.vPortRaiseBASEPRI
                0x080e0a00       0x3c /home/jon/dev_src/SEU-Detect-Correct/build/timers.o
 *fill*         0x080e0a3c        0x4 
 .text.vPortRaiseBASEPRI
                0x080e0a40       0x3c /home/jon/dev_src/SEU-Detect-Correct/build/heap_4.o

.text.ulPortRaiseBASEPRI
                0x080e0a80      0x164
 .text.ulPortRaiseBASEPRI
                0x080e0a80       0x44 /home/jon/dev_src/SEU-Detect-Correct/build/port.o
 *fill*         0x080e0ac4       0x1c 
 .text.ulPortRaiseBASEPRI
                0x080e0ae0       0x44 /home/jon/dev_src/SEU-Detect-Correct/build/queue.o
 *fill*         0x080e0b24       0x1c 
 .text.ulPortRaiseBASEPRI
                0x080e0b40       0x44 /home/jon/dev_src/SEU-Detect-Correct/build/tasks.o
 *fill*         0x080e0b84       0x1c 
 .text.ulPortRaiseBASEPRI
                0x080e0ba0       0x44 /home/jon/dev_src/SEU-Detect-Correct/build/event_groups.o

.text.vPortSetBASEPRI
                0x080e0c00       0xf0
 .text.vPortSetBASEPRI
                0x080e0c00       0x30 /home/jon/dev_src/SEU-Detect-Correct/build/port.o
 *fill*         0x080e0c30       0x10 
 .text.vPortSetBASEPRI
                0x080e0c40       0x30 /home/jon/dev_src/SEU-Detect-Correct/build/queue.o
 *fill*         0x080e0c70       0x10 
 .text.vPortSetBASEPRI
                0x080e0c80       0x30 /home/jon/dev_src/SEU-Detect-Correct/build/tasks.o
 *fill*         0x080e0cb0       0x10 
 .text.vPortSetBASEPRI
                0x080e0cc0       0x30 /home/jon/dev_src/SEU-Detect-Correct/build/event_groups.o

.flash0func     0x080e0d00       0x60
 .flash0func    0x080e0d00       0x60 build/trace_functions.o
                0x080e0d00                section0_profile_func_enter

.flash1func     0x080e0d60       0x60
 .flash1func    0x080e0d60       0x60 build/trace_functions.o
                0x080e0d60                section1_profile_func_enter

.flash2func     0x080e0dc0       0x60
 .flash2func    0x080e0dc0       0x60 build/trace_functions.o
                0x080e0dc0                section2_profile_func_enter

.flash3func     0x080e0e20       0x60
 .flash3func    0x080e0e20       0x60 build/trace_functions.o
                0x080e0e20                section3_profile_func_enter

.flash4func     0x080e0e80       0x60
 .flash4func    0x080e0e80       0x60 build/trace_functions.o
                0x080e0e80                section4_profile_func_enter

.flash5func     0x080e0ee0       0x60
 .flash5func    0x080e0ee0       0x60 build/trace_functions.o
                0x080e0ee0                section5_profile_func_enter

.flash6func     0x080e0f40       0x60
 .flash6func    0x080e0f40       0x60 build/trace_functions.o
                0x080e0f40                section6_profile_func_enter

.flash7func     0x080e0fa0       0x60
 .flash7func    0x080e0fa0       0x60 build/trace_functions.o
                0x080e0fa0                section7_profile_func_enter

.flash8func     0x080e1000       0x60
 .flash8func    0x080e1000       0x60 build/trace_functions.o
                0x080e1000                section8_profile_func_enter

.flash9func     0x080e1060       0x60
 .flash9func    0x080e1060       0x60 build/trace_functions.o
                0x080e1060                section9_profile_func_enter

.flash10func    0x080e10c0       0x60
 .flash10func   0x080e10c0       0x60 build/trace_functions.o
                0x080e10c0                section10_profile_func_enter

.flash11func    0x080e1120       0x60
 .flash11func   0x080e1120       0x60 build/trace_functions.o
                0x080e1120                section11_profile_func_enter

.flash12func    0x080e1180       0x60
 .flash12func   0x080e1180       0x60 build/trace_functions.o
                0x080e1180                section12_profile_func_enter

.flash13func    0x080e11e0       0x60
 .flash13func   0x080e11e0       0x60 build/trace_functions.o
                0x080e11e0                section13_profile_func_enter

.flash14func    0x080e1240       0x60
 .flash14func   0x080e1240       0x60 build/trace_functions.o
                0x080e1240                section14_profile_func_enter

.flash17func    0x080e12a0       0x60
 .flash17func   0x080e12a0       0x60 build/trace_functions.o
                0x080e12a0                section17_profile_func_enter

.text.Default_Handler
                0x080e1300        0x2
 .text.Default_Handler
                0x080e1300        0x2 /home/jon/dev_src/SEU-Detect-Correct/build/startup_stm32f4xx.o
                0x080e1300                RTC_Alarm_IRQHandler
                0x080e1300                HASH_RNG_IRQHandler
                0x080e1300                EXTI2_IRQHandler
                0x080e1300                TIM8_CC_IRQHandler
                0x080e1300                DebugMon_Handler
                0x080e1300                TIM1_CC_IRQHandler
                0x080e1300                DMA2_Stream5_IRQHandler
                0x080e1300                HardFault_Handler
                0x080e1300                DMA1_Stream5_IRQHandler
                0x080e1300                PVD_IRQHandler
                0x080e1300                SDIO_IRQHandler
                0x080e1300                TAMP_STAMP_IRQHandler
                0x080e1300                NMI_Handler
                0x080e1300                CAN2_RX1_IRQHandler
                0x080e1300                EXTI3_IRQHandler
                0x080e1300                TIM8_TRG_COM_TIM14_IRQHandler
                0x080e1300                TIM1_UP_TIM10_IRQHandler
                0x080e1300                TIM8_UP_TIM13_IRQHandler
                0x080e1300                I2C3_ER_IRQHandler
                0x080e1300                EXTI0_IRQHandler
                0x080e1300                I2C2_EV_IRQHandler
                0x080e1300                DMA1_Stream2_IRQHandler
                0x080e1300                CAN1_RX0_IRQHandler
                0x080e1300                FPU_IRQHandler
                0x080e1300                OTG_HS_WKUP_IRQHandler
                0x080e1300                UsageFault_Handler
                0x080e1300                CAN2_SCE_IRQHandler
                0x080e1300                DMA2_Stream2_IRQHandler
                0x080e1300                SPI1_IRQHandler
                0x080e1300                TIM6_DAC_IRQHandler
                0x080e1300                TIM1_BRK_TIM9_IRQHandler
                0x080e1300                DCMI_IRQHandler
                0x080e1300                CAN2_RX0_IRQHandler
                0x080e1300                DMA2_Stream3_IRQHandler
                0x080e1300                USART6_IRQHandler
                0x080e1300                USART3_IRQHandler
                0x080e1300                CRYP_IRQHandler
                0x080e1300                CAN1_RX1_IRQHandler
                0x080e1300                UART5_IRQHandler
                0x080e1300                DMA2_Stream0_IRQHandler
                0x080e1300                TIM4_IRQHandler
                0x080e1300                I2C1_EV_IRQHandler
                0x080e1300                DMA1_Stream6_IRQHandler
                0x080e1300                DMA1_Stream1_IRQHandler
                0x080e1300                UART4_IRQHandler
                0x080e1300                TIM3_IRQHandler
                0x080e1300                RCC_IRQHandler
                0x080e1300                TIM8_BRK_TIM12_IRQHandler
                0x080e1300                Default_Handler
                0x080e1300                EXTI15_10_IRQHandler
                0x080e1300                ADC_IRQHandler
                0x080e1300                DMA1_Stream7_IRQHandler
                0x080e1300                TIM7_IRQHandler
                0x080e1300                CAN2_TX_IRQHandler
                0x080e1300                TIM5_IRQHandler
                0x080e1300                DMA2_Stream7_IRQHandler
                0x080e1300                I2C3_EV_IRQHandler
                0x080e1300                EXTI9_5_IRQHandler
                0x080e1300                RTC_WKUP_IRQHandler
                0x080e1300                ETH_WKUP_IRQHandler
                0x080e1300                SPI2_IRQHandler
                0x080e1300                OTG_HS_EP1_IN_IRQHandler
                0x080e1300                MemManage_Handler
                0x080e1300                DMA1_Stream0_IRQHandler
                0x080e1300                CAN1_TX_IRQHandler
                0x080e1300                EXTI4_IRQHandler
                0x080e1300                FSMC_IRQHandler
                0x080e1300                ETH_IRQHandler
                0x080e1300                OTG_HS_EP1_OUT_IRQHandler
                0x080e1300                WWDG_IRQHandler
                0x080e1300                TIM2_IRQHandler
                0x080e1300                OTG_FS_WKUP_IRQHandler
                0x080e1300                TIM1_TRG_COM_TIM11_IRQHandler
                0x080e1300                OTG_HS_IRQHandler
                0x080e1300                EXTI1_IRQHandler
                0x080e1300                USART2_IRQHandler
                0x080e1300                I2C2_ER_IRQHandler
                0x080e1300                DMA2_Stream1_IRQHandler
                0x080e1300                CAN1_SCE_IRQHandler
                0x080e1300                FLASH_IRQHandler
                0x080e1300                DMA2_Stream4_IRQHandler
                0x080e1300                BusFault_Handler
                0x080e1300                USART1_IRQHandler
                0x080e1300                OTG_FS_IRQHandler
                0x080e1300                SPI3_IRQHandler
                0x080e1300                DMA1_Stream4_IRQHandler
                0x080e1300                I2C1_ER_IRQHandler
                0x080e1300                DMA2_Stream6_IRQHandler
                0x080e1300                DMA1_Stream3_IRQHandler

.rel.dyn        0x080e1304        0x0
 .rel.iplt      0x080e1304        0x0 /home/jon/dev_src/SEU-Detect-Correct/build/system_stm32f4xx.o

.data           0x20000000      0x8fc
                0x20000000                . = ALIGN (0x4)
                0x20000000                _sdata = .
 *(.ramfunc .ramfunc.* .fastrun .fastrun.*)
 *(.data .data.*)
 .data          0x20000000        0x0 /home/jon/dev_src/SEU-Detect-Correct/build/system_stm32f4xx.o
 .data.SystemCoreClock
                0x20000000        0x4 /home/jon/dev_src/SEU-Detect-Correct/build/system_stm32f4xx.o
                0x20000000                SystemCoreClock
 .data.AHBPrescTable
                0x20000004       0x10 /home/jon/dev_src/SEU-Detect-Correct/build/system_stm32f4xx.o
                0x20000004                AHBPrescTable
 .data          0x20000014        0x0 /home/jon/dev_src/SEU-Detect-Correct/build/main.o
 .data          0x20000014        0x0 /home/jon/dev_src/SEU-Detect-Correct/build/syscalls.o
 .data          0x20000014        0x0 /home/jon/dev_src/SEU-Detect-Correct/build/port.o
 .data.uxCriticalNesting
                0x20000014        0x4 /home/jon/dev_src/SEU-Detect-Correct/build/port.o
 .data          0x20000018        0x0 /home/jon/dev_src/SEU-Detect-Correct/build/list.o
 .data          0x20000018        0x0 /home/jon/dev_src/SEU-Detect-Correct/build/queue.o
 .data          0x20000018        0x0 /home/jon/dev_src/SEU-Detect-Correct/build/tasks.o
 .data.xNextTaskUnblockTime
                0x20000018        0x4 /home/jon/dev_src/SEU-Detect-Correct/build/tasks.o
 .data          0x2000001c        0x0 /home/jon/dev_src/SEU-Detect-Correct/build/event_groups.o
 .data          0x2000001c        0x0 /home/jon/dev_src/SEU-Detect-Correct/build/timers.o
 .data          0x2000001c        0x0 /home/jon/dev_src/SEU-Detect-Correct/build/heap_4.o
 .data          0x2000001c        0x0 /home/jon/dev_src/SEU-Detect-Correct/build/stm32f4xx_syscfg.o
 .data          0x2000001c        0x0 /home/jon/dev_src/SEU-Detect-Correct/build/misc.o
 .data          0x2000001c        0x0 /home/jon/dev_src/SEU-Detect-Correct/build/stm32f4xx_adc.o
 .data          0x2000001c        0x0 /home/jon/dev_src/SEU-Detect-Correct/build/stm32f4xx_dac.o
 .data          0x2000001c        0x0 /home/jon/dev_src/SEU-Detect-Correct/build/stm32f4xx_dma.o
 .data          0x2000001c        0x0 /home/jon/dev_src/SEU-Detect-Correct/build/stm32f4xx_exti.o
 .data          0x2000001c        0x0 /home/jon/dev_src/SEU-Detect-Correct/build/stm32f4xx_flash.o
 .data          0x2000001c        0x0 /home/jon/dev_src/SEU-Detect-Correct/build/stm32f4xx_gpio.o
 .data          0x2000001c        0x0 /home/jon/dev_src/SEU-Detect-Correct/build/stm32f4xx_i2c.o
 .data          0x2000001c        0x0 /home/jon/dev_src/SEU-Detect-Correct/build/stm32f4xx_rcc.o
 .data.APBAHBPrescTable
                0x2000001c       0x10 /home/jon/dev_src/SEU-Detect-Correct/build/stm32f4xx_rcc.o
 .data          0x2000002c        0x0 /home/jon/dev_src/SEU-Detect-Correct/build/stm32f4xx_spi.o
 .data          0x2000002c        0x0 /home/jon/dev_src/SEU-Detect-Correct/build/stm32f4xx_tim.o
 .data          0x2000002c        0x0 /home/jon/dev_src/SEU-Detect-Correct/build/stm32f4xx_usart.o
 .data          0x2000002c        0x0 /home/jon/dev_src/SEU-Detect-Correct/build/stm32f4xx_rng.o
 .data          0x2000002c        0x0 build/trace_functions.o
 .data.block_pointers
                0x2000002c       0x48 build/trace_functions.o
                0x2000002c                block_pointers
 .data.section_pointers
                0x20000074       0x48 build/trace_functions.o
                0x20000074                section_pointers
 .data          0x200000bc        0x0 /home/jon/dev_src/SEU-Detect-Correct/build/startup_stm32f4xx.o
 .data          0x200000bc        0x0 /home/jon/gcc-arm-none-eabi-5_2-2015q4/arm-none-eabi/lib/armv7e-m/fpu/libc.a(lib_a-errno.o)
 .data          0x200000bc        0x0 /home/jon/gcc-arm-none-eabi-5_2-2015q4/arm-none-eabi/lib/armv7e-m/fpu/libc.a(lib_a-impure.o)
 *fill*         0x200000bc        0x4 
 .data.impure_data
                0x200000c0      0x428 /home/jon/gcc-arm-none-eabi-5_2-2015q4/arm-none-eabi/lib/armv7e-m/fpu/libc.a(lib_a-impure.o)
 .data._impure_ptr
                0x200004e8        0x4 /home/jon/gcc-arm-none-eabi-5_2-2015q4/arm-none-eabi/lib/armv7e-m/fpu/libc.a(lib_a-impure.o)
                0x200004e8                _impure_ptr
 .data          0x200004ec        0x0 /home/jon/gcc-arm-none-eabi-5_2-2015q4/arm-none-eabi/lib/armv7e-m/fpu/libc.a(lib_a-memcmp.o)
 .data          0x200004ec        0x0 /home/jon/gcc-arm-none-eabi-5_2-2015q4/arm-none-eabi/lib/armv7e-m/fpu/libc.a(lib_a-memcpy.o)
 .data          0x200004ec        0x0 /home/jon/gcc-arm-none-eabi-5_2-2015q4/arm-none-eabi/lib/armv7e-m/fpu/libc.a(lib_a-memset.o)
 .data          0x200004ec        0x0 /home/jon/gcc-arm-none-eabi-5_2-2015q4/arm-none-eabi/lib/armv7e-m/fpu/libc.a(lib_a-puts.o)
 .data          0x200004ec        0x0 /home/jon/gcc-arm-none-eabi-5_2-2015q4/arm-none-eabi/lib/armv7e-m/fpu/libc.a(lib_a-strlen.o)
 .data          0x200004ec        0x0 /home/jon/gcc-arm-none-eabi-5_2-2015q4/arm-none-eabi/lib/armv7e-m/fpu/libc.a(lib_a-findfp.o)
 .data          0x200004ec        0x0 /home/jon/gcc-arm-none-eabi-5_2-2015q4/arm-none-eabi/lib/armv7e-m/fpu/libc.a(lib_a-fvwrite.o)
 .data          0x200004ec        0x0 /home/jon/gcc-arm-none-eabi-5_2-2015q4/arm-none-eabi/lib/armv7e-m/fpu/libc.a(lib_a-fwalk.o)
 .data          0x200004ec        0x0 /home/jon/gcc-arm-none-eabi-5_2-2015q4/arm-none-eabi/lib/armv7e-m/fpu/libc.a(lib_a-mallocr.o)
 .data.__malloc_av_
                0x200004ec      0x408 /home/jon/gcc-arm-none-eabi-5_2-2015q4/arm-none-eabi/lib/armv7e-m/fpu/libc.a(lib_a-mallocr.o)
                0x200004ec                __malloc_av_
 .data.__malloc_trim_threshold
                0x200008f4        0x4 /home/jon/gcc-arm-none-eabi-5_2-2015q4/arm-none-eabi/lib/armv7e-m/fpu/libc.a(lib_a-mallocr.o)
                0x200008f4                __malloc_trim_threshold
 .data.__malloc_sbrk_base
                0x200008f8        0x4 /home/jon/gcc-arm-none-eabi-5_2-2015q4/arm-none-eabi/lib/armv7e-m/fpu/libc.a(lib_a-mallocr.o)
                0x200008f8                __malloc_sbrk_base
 .data          0x200008fc        0x0 /home/jon/gcc-arm-none-eabi-5_2-2015q4/arm-none-eabi/lib/armv7e-m/fpu/libc.a(lib_a-memchr.o)
 .data          0x200008fc        0x0 /home/jon/gcc-arm-none-eabi-5_2-2015q4/arm-none-eabi/lib/armv7e-m/fpu/libc.a(lib_a-memmove.o)
 .data          0x200008fc        0x0 /home/jon/gcc-arm-none-eabi-5_2-2015q4/arm-none-eabi/lib/armv7e-m/fpu/libc.a(lib_a-mlock.o)
 .data          0x200008fc        0x0 /home/jon/gcc-arm-none-eabi-5_2-2015q4/arm-none-eabi/lib/armv7e-m/fpu/libc.a(lib_a-reallocr.o)
 .data          0x200008fc        0x0 /home/jon/gcc-arm-none-eabi-5_2-2015q4/arm-none-eabi/lib/armv7e-m/fpu/libc.a(lib_a-sbrkr.o)
 .data          0x200008fc        0x0 /home/jon/gcc-arm-none-eabi-5_2-2015q4/arm-none-eabi/lib/armv7e-m/fpu/libc.a(lib_a-stdio.o)
 .data          0x200008fc        0x0 /home/jon/gcc-arm-none-eabi-5_2-2015q4/arm-none-eabi/lib/armv7e-m/fpu/libc.a(lib_a-writer.o)
 .data          0x200008fc        0x0 /home/jon/gcc-arm-none-eabi-5_2-2015q4/arm-none-eabi/lib/armv7e-m/fpu/libc.a(lib_a-wsetup.o)
 .data          0x200008fc        0x0 /home/jon/gcc-arm-none-eabi-5_2-2015q4/arm-none-eabi/lib/armv7e-m/fpu/libc.a(lib_a-closer.o)
 .data          0x200008fc        0x0 /home/jon/gcc-arm-none-eabi-5_2-2015q4/arm-none-eabi/lib/armv7e-m/fpu/libc.a(lib_a-fclose.o)
 .data          0x200008fc        0x0 /home/jon/gcc-arm-none-eabi-5_2-2015q4/arm-none-eabi/lib/armv7e-m/fpu/libc.a(lib_a-fflush.o)
 .data          0x200008fc        0x0 /home/jon/gcc-arm-none-eabi-5_2-2015q4/arm-none-eabi/lib/armv7e-m/fpu/libc.a(lib_a-freer.o)
 .data          0x200008fc        0x0 /home/jon/gcc-arm-none-eabi-5_2-2015q4/arm-none-eabi/lib/armv7e-m/fpu/libc.a(lib_a-lseekr.o)
 .data          0x200008fc        0x0 /home/jon/gcc-arm-none-eabi-5_2-2015q4/arm-none-eabi/lib/armv7e-m/fpu/libc.a(lib_a-makebuf.o)
 .data          0x200008fc        0x0 /home/jon/gcc-arm-none-eabi-5_2-2015q4/arm-none-eabi/lib/armv7e-m/fpu/libc.a(lib_a-readr.o)
 .data          0x200008fc        0x0 /home/jon/gcc-arm-none-eabi-5_2-2015q4/arm-none-eabi/lib/armv7e-m/fpu/libc.a(lib_a-reent.o)
 .data          0x200008fc        0x0 /home/jon/gcc-arm-none-eabi-5_2-2015q4/arm-none-eabi/lib/armv7e-m/fpu/libc.a(lib_a-fstatr.o)
 .data          0x200008fc        0x0 /home/jon/gcc-arm-none-eabi-5_2-2015q4/arm-none-eabi/lib/armv7e-m/fpu/libc.a(lib_a-isattyr.o)
 .data          0x200008fc        0x0 /home/jon/gcc-arm-none-eabi-5_2-2015q4/arm-none-eabi/lib/armv7e-m/fpu/libm.a(lib_a-sf_sin.o)
 .data          0x200008fc        0x0 /home/jon/gcc-arm-none-eabi-5_2-2015q4/arm-none-eabi/lib/armv7e-m/fpu/libm.a(lib_a-ef_rem_pio2.o)
 .data          0x200008fc        0x0 /home/jon/gcc-arm-none-eabi-5_2-2015q4/arm-none-eabi/lib/armv7e-m/fpu/libm.a(lib_a-kf_cos.o)
 .data          0x200008fc        0x0 /home/jon/gcc-arm-none-eabi-5_2-2015q4/arm-none-eabi/lib/armv7e-m/fpu/libm.a(lib_a-kf_rem_pio2.o)
 .data          0x200008fc        0x0 /home/jon/gcc-arm-none-eabi-5_2-2015q4/arm-none-eabi/lib/armv7e-m/fpu/libm.a(lib_a-kf_sin.o)
 .data          0x200008fc        0x0 /home/jon/gcc-arm-none-eabi-5_2-2015q4/arm-none-eabi/lib/armv7e-m/fpu/libm.a(lib_a-sf_fabs.o)
 .data          0x200008fc        0x0 /home/jon/gcc-arm-none-eabi-5_2-2015q4/arm-none-eabi/lib/armv7e-m/fpu/libm.a(lib_a-sf_floor.o)
 .data          0x200008fc        0x0 /home/jon/gcc-arm-none-eabi-5_2-2015q4/arm-none-eabi/lib/armv7e-m/fpu/libm.a(lib_a-sf_scalbn.o)
 .data          0x200008fc        0x0 /home/jon/gcc-arm-none-eabi-5_2-2015q4/arm-none-eabi/lib/armv7e-m/fpu/libm.a(lib_a-sf_copysign.o)
 *(.gnu.linkonce.d.*)
                0x200008fc                . = ALIGN (0x4)
                0x200008fc                _edata = .

.igot.plt       0x200008fc        0x0
 .igot.plt      0x200008fc        0x0 /home/jon/dev_src/SEU-Detect-Correct/build/system_stm32f4xx.o

.flash0hdr      0x200008fc       0x48
 .flash0hdr     0x200008fc       0x48 build/trace_functions.o
                0x200008fc                FlashHeader0

.flash1hdr      0x20000944       0x48
 .flash1hdr     0x20000944       0x48 build/trace_functions.o
                0x20000944                FlashHeader1

.flash2hdr      0x2000098c       0x48
 .flash2hdr     0x2000098c       0x48 build/trace_functions.o
                0x2000098c                FlashHeader2

.flash3hdr      0x200009d4       0x48
 .flash3hdr     0x200009d4       0x48 build/trace_functions.o
                0x200009d4                FlashHeader3

.flash4hdr      0x20000a1c       0x48
 .flash4hdr     0x20000a1c       0x48 build/trace_functions.o
                0x20000a1c                FlashHeader4

.flash5hdr      0x20000a64       0x48
 .flash5hdr     0x20000a64       0x48 build/trace_functions.o
                0x20000a64                FlashHeader5

.flash6hdr      0x20000aac       0x48
 .flash6hdr     0x20000aac       0x48 build/trace_functions.o
                0x20000aac                FlashHeader6

.flash7hdr      0x20000af4       0x48
 .flash7hdr     0x20000af4       0x48 build/trace_functions.o
                0x20000af4                FlashHeader7

.flash8hdr      0x20000b3c       0x48
 .flash8hdr     0x20000b3c       0x48 build/trace_functions.o
                0x20000b3c                FlashHeader8

.flash9hdr      0x20000b84       0x48
 .flash9hdr     0x20000b84       0x48 build/trace_functions.o
                0x20000b84                FlashHeader9

.flash10hdr     0x20000bcc       0x48
 .flash10hdr    0x20000bcc       0x48 build/trace_functions.o
                0x20000bcc                FlashHeader10

.flash11hdr     0x20000c14       0x48
 .flash11hdr    0x20000c14       0x48 build/trace_functions.o
                0x20000c14                FlashHeader11

.flash12hdr     0x20000c5c       0x48
 .flash12hdr    0x20000c5c       0x48 build/trace_functions.o
                0x20000c5c                FlashHeader12

.flash13hdr     0x20000ca4       0x48
 .flash13hdr    0x20000ca4       0x48 build/trace_functions.o
                0x20000ca4                FlashHeader13

.flash14hdr     0x20000cec       0x48
 .flash14hdr    0x20000cec       0x48 build/trace_functions.o
                0x20000cec                FlashHeader14

.flash17hdr     0x20000d34       0x48
 .flash17hdr    0x20000d34       0x48 build/trace_functions.o
                0x20000d34                FlashHeader17

.flash18hdr     0x20000d7c       0x48
 .flash18hdr    0x20000d7c       0x48 build/trace_functions.o
                0x20000d7c                FlashHeader18

.ARM.extab      0x20000dc4        0x0
 *(.ARM.extab*)
                0x20000dc4                __exidx_start = .

.ARM.exidx      0x20000dc4        0x0
 *(.ARM.exidx*)
                0x20000dc4                __exidx_end = .
                [!provide]                PROVIDE (flash_used_size, (((SIZEOF (.text) + SIZEOF (.data)) + SIZEOF (.ARM.extab)) + SIZEOF (.ARM.exidx)))

.bss            0x20000dc4    0x12e14
                0x20000dc4                . = ALIGN (0x4)
                0x20000dc4                _sbss = .
                0x20000dc4                __bss_start__ = _sbss
 *(.bss .bss.*)
 .bss           0x20000dc4        0x0 /home/jon/dev_src/SEU-Detect-Correct/build/system_stm32f4xx.o
 .bss           0x20000dc4        0x0 /home/jon/dev_src/SEU-Detect-Correct/build/main.o
 .bss           0x20000dc4        0x0 /home/jon/dev_src/SEU-Detect-Correct/build/syscalls.o
 .bss.heap_end.9157
                0x20000dc4        0x4 /home/jon/dev_src/SEU-Detect-Correct/build/syscalls.o
 .bss           0x20000dc8        0x0 /home/jon/dev_src/SEU-Detect-Correct/build/port.o
 .bss.ucMaxSysCallPriority
                0x20000dc8        0x1 /home/jon/dev_src/SEU-Detect-Correct/build/port.o
 *fill*         0x20000dc9        0x3 
 .bss.ulMaxPRIGROUPValue
                0x20000dcc        0x4 /home/jon/dev_src/SEU-Detect-Correct/build/port.o
 .bss           0x20000dd0        0x0 /home/jon/dev_src/SEU-Detect-Correct/build/list.o
 .bss           0x20000dd0        0x0 /home/jon/dev_src/SEU-Detect-Correct/build/queue.o
 .bss           0x20000dd0        0x0 /home/jon/dev_src/SEU-Detect-Correct/build/tasks.o
 .bss.pxCurrentTCB
                0x20000dd0        0x4 /home/jon/dev_src/SEU-Detect-Correct/build/tasks.o
                0x20000dd0                pxCurrentTCB
 .bss.pxReadyTasksLists
                0x20000dd4       0x64 /home/jon/dev_src/SEU-Detect-Correct/build/tasks.o
 .bss.xDelayedTaskList1
                0x20000e38       0x14 /home/jon/dev_src/SEU-Detect-Correct/build/tasks.o
 .bss.xDelayedTaskList2
                0x20000e4c       0x14 /home/jon/dev_src/SEU-Detect-Correct/build/tasks.o
 .bss.pxDelayedTaskList
                0x20000e60        0x4 /home/jon/dev_src/SEU-Detect-Correct/build/tasks.o
 .bss.pxOverflowDelayedTaskList
                0x20000e64        0x4 /home/jon/dev_src/SEU-Detect-Correct/build/tasks.o
 .bss.xPendingReadyList
                0x20000e68       0x14 /home/jon/dev_src/SEU-Detect-Correct/build/tasks.o
 .bss.xTasksWaitingTermination
                0x20000e7c       0x14 /home/jon/dev_src/SEU-Detect-Correct/build/tasks.o
 .bss.uxTasksDeleted
                0x20000e90        0x4 /home/jon/dev_src/SEU-Detect-Correct/build/tasks.o
 .bss.xSuspendedTaskList
                0x20000e94       0x14 /home/jon/dev_src/SEU-Detect-Correct/build/tasks.o
 .bss.uxCurrentNumberOfTasks
                0x20000ea8        0x4 /home/jon/dev_src/SEU-Detect-Correct/build/tasks.o
 .bss.xTickCount
                0x20000eac        0x4 /home/jon/dev_src/SEU-Detect-Correct/build/tasks.o
 .bss.uxTopReadyPriority
                0x20000eb0        0x4 /home/jon/dev_src/SEU-Detect-Correct/build/tasks.o
 .bss.xSchedulerRunning
                0x20000eb4        0x4 /home/jon/dev_src/SEU-Detect-Correct/build/tasks.o
 .bss.uxPendedTicks
                0x20000eb8        0x4 /home/jon/dev_src/SEU-Detect-Correct/build/tasks.o
 .bss.xYieldPending
                0x20000ebc        0x4 /home/jon/dev_src/SEU-Detect-Correct/build/tasks.o
 .bss.xNumOfOverflows
                0x20000ec0        0x4 /home/jon/dev_src/SEU-Detect-Correct/build/tasks.o
 .bss.uxTaskNumber
                0x20000ec4        0x4 /home/jon/dev_src/SEU-Detect-Correct/build/tasks.o
 .bss.uxSchedulerSuspended
                0x20000ec8        0x4 /home/jon/dev_src/SEU-Detect-Correct/build/tasks.o
 .bss           0x20000ecc        0x0 /home/jon/dev_src/SEU-Detect-Correct/build/event_groups.o
 .bss           0x20000ecc        0x0 /home/jon/dev_src/SEU-Detect-Correct/build/timers.o
 .bss.xActiveTimerList1
                0x20000ecc       0x14 /home/jon/dev_src/SEU-Detect-Correct/build/timers.o
 .bss.xActiveTimerList2
                0x20000ee0       0x14 /home/jon/dev_src/SEU-Detect-Correct/build/timers.o
 .bss.pxCurrentTimerList
                0x20000ef4        0x4 /home/jon/dev_src/SEU-Detect-Correct/build/timers.o
 .bss.pxOverflowTimerList
                0x20000ef8        0x4 /home/jon/dev_src/SEU-Detect-Correct/build/timers.o
 .bss.xTimerQueue
                0x20000efc        0x4 /home/jon/dev_src/SEU-Detect-Correct/build/timers.o
 .bss.xLastTime.5330
                0x20000f00        0x4 /home/jon/dev_src/SEU-Detect-Correct/build/timers.o
 .bss           0x20000f04        0x0 /home/jon/dev_src/SEU-Detect-Correct/build/heap_4.o
 .bss.ucHeap    0x20000f04    0x12c00 /home/jon/dev_src/SEU-Detect-Correct/build/heap_4.o
 .bss.xStart    0x20013b04        0x8 /home/jon/dev_src/SEU-Detect-Correct/build/heap_4.o
 .bss.pxEnd     0x20013b0c        0x4 /home/jon/dev_src/SEU-Detect-Correct/build/heap_4.o
 .bss.xFreeBytesRemaining
                0x20013b10        0x4 /home/jon/dev_src/SEU-Detect-Correct/build/heap_4.o
 .bss.xMinimumEverFreeBytesRemaining
                0x20013b14        0x4 /home/jon/dev_src/SEU-Detect-Correct/build/heap_4.o
 .bss.xBlockAllocatedBit
                0x20013b18        0x4 /home/jon/dev_src/SEU-Detect-Correct/build/heap_4.o
 .bss           0x20013b1c        0x0 /home/jon/dev_src/SEU-Detect-Correct/build/stm32f4xx_syscfg.o
 .bss           0x20013b1c        0x0 /home/jon/dev_src/SEU-Detect-Correct/build/misc.o
 .bss           0x20013b1c        0x0 /home/jon/dev_src/SEU-Detect-Correct/build/stm32f4xx_adc.o
 .bss           0x20013b1c        0x0 /home/jon/dev_src/SEU-Detect-Correct/build/stm32f4xx_dac.o
 .bss           0x20013b1c        0x0 /home/jon/dev_src/SEU-Detect-Correct/build/stm32f4xx_dma.o
 .bss           0x20013b1c        0x0 /home/jon/dev_src/SEU-Detect-Correct/build/stm32f4xx_exti.o
 .bss           0x20013b1c        0x0 /home/jon/dev_src/SEU-Detect-Correct/build/stm32f4xx_flash.o
 .bss           0x20013b1c        0x0 /home/jon/dev_src/SEU-Detect-Correct/build/stm32f4xx_gpio.o
 .bss           0x20013b1c        0x0 /home/jon/dev_src/SEU-Detect-Correct/build/stm32f4xx_i2c.o
 .bss           0x20013b1c        0x0 /home/jon/dev_src/SEU-Detect-Correct/build/stm32f4xx_rcc.o
 .bss           0x20013b1c        0x0 /home/jon/dev_src/SEU-Detect-Correct/build/stm32f4xx_spi.o
 .bss           0x20013b1c        0x0 /home/jon/dev_src/SEU-Detect-Correct/build/stm32f4xx_tim.o
 .bss           0x20013b1c        0x0 /home/jon/dev_src/SEU-Detect-Correct/build/stm32f4xx_usart.o
 .bss           0x20013b1c        0x0 /home/jon/dev_src/SEU-Detect-Correct/build/stm32f4xx_rng.o
 .bss           0x20013b1c        0x0 build/trace_functions.o
 .bss.LastBlockChecked
                0x20013b1c        0x4 build/trace_functions.o
                0x20013b1c                LastBlockChecked
 .bss           0x20013b20        0x0 /home/jon/dev_src/SEU-Detect-Correct/build/startup_stm32f4xx.o
 .bss           0x20013b20        0x0 /home/jon/gcc-arm-none-eabi-5_2-2015q4/arm-none-eabi/lib/armv7e-m/fpu/libc.a(lib_a-errno.o)
 .bss           0x20013b20        0x0 /home/jon/gcc-arm-none-eabi-5_2-2015q4/arm-none-eabi/lib/armv7e-m/fpu/libc.a(lib_a-impure.o)
 .bss           0x20013b20        0x0 /home/jon/gcc-arm-none-eabi-5_2-2015q4/arm-none-eabi/lib/armv7e-m/fpu/libc.a(lib_a-memcmp.o)
 .bss           0x20013b20        0x0 /home/jon/gcc-arm-none-eabi-5_2-2015q4/arm-none-eabi/lib/armv7e-m/fpu/libc.a(lib_a-memcpy.o)
 .bss           0x20013b20        0x0 /home/jon/gcc-arm-none-eabi-5_2-2015q4/arm-none-eabi/lib/armv7e-m/fpu/libc.a(lib_a-memset.o)
 .bss           0x20013b20        0x0 /home/jon/gcc-arm-none-eabi-5_2-2015q4/arm-none-eabi/lib/armv7e-m/fpu/libc.a(lib_a-puts.o)
 .bss           0x20013b20        0x0 /home/jon/gcc-arm-none-eabi-5_2-2015q4/arm-none-eabi/lib/armv7e-m/fpu/libc.a(lib_a-strlen.o)
 .bss           0x20013b20        0x0 /home/jon/gcc-arm-none-eabi-5_2-2015q4/arm-none-eabi/lib/armv7e-m/fpu/libc.a(lib_a-findfp.o)
 .bss           0x20013b20        0x0 /home/jon/gcc-arm-none-eabi-5_2-2015q4/arm-none-eabi/lib/armv7e-m/fpu/libc.a(lib_a-fvwrite.o)
 .bss           0x20013b20        0x0 /home/jon/gcc-arm-none-eabi-5_2-2015q4/arm-none-eabi/lib/armv7e-m/fpu/libc.a(lib_a-fwalk.o)
 .bss           0x20013b20        0x0 /home/jon/gcc-arm-none-eabi-5_2-2015q4/arm-none-eabi/lib/armv7e-m/fpu/libc.a(lib_a-mallocr.o)
 .bss.__malloc_max_total_mem
                0x20013b20        0x4 /home/jon/gcc-arm-none-eabi-5_2-2015q4/arm-none-eabi/lib/armv7e-m/fpu/libc.a(lib_a-mallocr.o)
                0x20013b20                __malloc_max_total_mem
 .bss.__malloc_max_sbrked_mem
                0x20013b24        0x4 /home/jon/gcc-arm-none-eabi-5_2-2015q4/arm-none-eabi/lib/armv7e-m/fpu/libc.a(lib_a-mallocr.o)
                0x20013b24                __malloc_max_sbrked_mem
 .bss.__malloc_top_pad
                0x20013b28        0x4 /home/jon/gcc-arm-none-eabi-5_2-2015q4/arm-none-eabi/lib/armv7e-m/fpu/libc.a(lib_a-mallocr.o)
                0x20013b28                __malloc_top_pad
 .bss.__malloc_current_mallinfo
                0x20013b2c       0x28 /home/jon/gcc-arm-none-eabi-5_2-2015q4/arm-none-eabi/lib/armv7e-m/fpu/libc.a(lib_a-mallocr.o)
                0x20013b2c                __malloc_current_mallinfo
 .bss           0x20013b54        0x0 /home/jon/gcc-arm-none-eabi-5_2-2015q4/arm-none-eabi/lib/armv7e-m/fpu/libc.a(lib_a-memchr.o)
 .bss           0x20013b54        0x0 /home/jon/gcc-arm-none-eabi-5_2-2015q4/arm-none-eabi/lib/armv7e-m/fpu/libc.a(lib_a-memmove.o)
 .bss           0x20013b54        0x0 /home/jon/gcc-arm-none-eabi-5_2-2015q4/arm-none-eabi/lib/armv7e-m/fpu/libc.a(lib_a-mlock.o)
 .bss           0x20013b54        0x0 /home/jon/gcc-arm-none-eabi-5_2-2015q4/arm-none-eabi/lib/armv7e-m/fpu/libc.a(lib_a-reallocr.o)
 .bss           0x20013b54        0x0 /home/jon/gcc-arm-none-eabi-5_2-2015q4/arm-none-eabi/lib/armv7e-m/fpu/libc.a(lib_a-sbrkr.o)
 .bss           0x20013b54        0x0 /home/jon/gcc-arm-none-eabi-5_2-2015q4/arm-none-eabi/lib/armv7e-m/fpu/libc.a(lib_a-stdio.o)
 .bss           0x20013b54        0x0 /home/jon/gcc-arm-none-eabi-5_2-2015q4/arm-none-eabi/lib/armv7e-m/fpu/libc.a(lib_a-writer.o)
 .bss           0x20013b54        0x0 /home/jon/gcc-arm-none-eabi-5_2-2015q4/arm-none-eabi/lib/armv7e-m/fpu/libc.a(lib_a-wsetup.o)
 .bss           0x20013b54        0x0 /home/jon/gcc-arm-none-eabi-5_2-2015q4/arm-none-eabi/lib/armv7e-m/fpu/libc.a(lib_a-closer.o)
 .bss           0x20013b54        0x0 /home/jon/gcc-arm-none-eabi-5_2-2015q4/arm-none-eabi/lib/armv7e-m/fpu/libc.a(lib_a-fclose.o)
 .bss           0x20013b54        0x0 /home/jon/gcc-arm-none-eabi-5_2-2015q4/arm-none-eabi/lib/armv7e-m/fpu/libc.a(lib_a-fflush.o)
 .bss           0x20013b54        0x0 /home/jon/gcc-arm-none-eabi-5_2-2015q4/arm-none-eabi/lib/armv7e-m/fpu/libc.a(lib_a-freer.o)
 .bss           0x20013b54        0x0 /home/jon/gcc-arm-none-eabi-5_2-2015q4/arm-none-eabi/lib/armv7e-m/fpu/libc.a(lib_a-lseekr.o)
 .bss           0x20013b54        0x0 /home/jon/gcc-arm-none-eabi-5_2-2015q4/arm-none-eabi/lib/armv7e-m/fpu/libc.a(lib_a-makebuf.o)
 .bss           0x20013b54        0x0 /home/jon/gcc-arm-none-eabi-5_2-2015q4/arm-none-eabi/lib/armv7e-m/fpu/libc.a(lib_a-readr.o)
 .bss           0x20013b54        0x0 /home/jon/gcc-arm-none-eabi-5_2-2015q4/arm-none-eabi/lib/armv7e-m/fpu/libc.a(lib_a-reent.o)
 .bss           0x20013b54        0x0 /home/jon/gcc-arm-none-eabi-5_2-2015q4/arm-none-eabi/lib/armv7e-m/fpu/libc.a(lib_a-fstatr.o)
 .bss           0x20013b54        0x0 /home/jon/gcc-arm-none-eabi-5_2-2015q4/arm-none-eabi/lib/armv7e-m/fpu/libc.a(lib_a-isattyr.o)
 .bss           0x20013b54        0x0 /home/jon/gcc-arm-none-eabi-5_2-2015q4/arm-none-eabi/lib/armv7e-m/fpu/libm.a(lib_a-sf_sin.o)
 .bss           0x20013b54        0x0 /home/jon/gcc-arm-none-eabi-5_2-2015q4/arm-none-eabi/lib/armv7e-m/fpu/libm.a(lib_a-ef_rem_pio2.o)
 .bss           0x20013b54        0x0 /home/jon/gcc-arm-none-eabi-5_2-2015q4/arm-none-eabi/lib/armv7e-m/fpu/libm.a(lib_a-kf_cos.o)
 .bss           0x20013b54        0x0 /home/jon/gcc-arm-none-eabi-5_2-2015q4/arm-none-eabi/lib/armv7e-m/fpu/libm.a(lib_a-kf_rem_pio2.o)
 .bss           0x20013b54        0x0 /home/jon/gcc-arm-none-eabi-5_2-2015q4/arm-none-eabi/lib/armv7e-m/fpu/libm.a(lib_a-kf_sin.o)
 .bss           0x20013b54        0x0 /home/jon/gcc-arm-none-eabi-5_2-2015q4/arm-none-eabi/lib/armv7e-m/fpu/libm.a(lib_a-sf_fabs.o)
 .bss           0x20013b54        0x0 /home/jon/gcc-arm-none-eabi-5_2-2015q4/arm-none-eabi/lib/armv7e-m/fpu/libm.a(lib_a-sf_floor.o)
 .bss           0x20013b54        0x0 /home/jon/gcc-arm-none-eabi-5_2-2015q4/arm-none-eabi/lib/armv7e-m/fpu/libm.a(lib_a-sf_scalbn.o)
 .bss           0x20013b54        0x0 /home/jon/gcc-arm-none-eabi-5_2-2015q4/arm-none-eabi/lib/armv7e-m/fpu/libm.a(lib_a-sf_copysign.o)
 *(.gnu.linkonce.b.*)
 *(COMMON)
 COMMON         0x20013b54       0x40 /home/jon/dev_src/SEU-Detect-Correct/build/queue.o
                0x20013b54                xQueueRegistry
 COMMON         0x20013b94       0x40 build/trace_functions.o
                0x20013b94                timestamps
 COMMON         0x20013bd4        0x4 /home/jon/gcc-arm-none-eabi-5_2-2015q4/arm-none-eabi/lib/armv7e-m/fpu/libc.a(lib_a-reent.o)
                0x20013bd4                errno
                0x20013bd8                . = ALIGN (0x4)
                0x20013bd8                _ebss = .
                0x20013bd8                __bss_end__ = _ebss
                0x20013bd8                end = .
                0x20020000                PROVIDE (_estack, 0x20020000)
OUTPUT(/home/jon/dev_src/SEU-Detect-Correct/binary/finalFreeRTOS.elf elf32-littlearm)

.debug_info     0x00000000     0xe69a
 .debug_info    0x00000000      0x596 /home/jon/dev_src/SEU-Detect-Correct/build/system_stm32f4xx.o
 .debug_info    0x00000596      0x58c /home/jon/dev_src/SEU-Detect-Correct/build/main.o
 .debug_info    0x00000b22      0x591 /home/jon/dev_src/SEU-Detect-Correct/build/syscalls.o
 .debug_info    0x000010b3      0x540 /home/jon/dev_src/SEU-Detect-Correct/build/port.o
 .debug_info    0x000015f3      0x2a0 /home/jon/dev_src/SEU-Detect-Correct/build/list.o
 .debug_info    0x00001893     0x12c7 /home/jon/dev_src/SEU-Detect-Correct/build/queue.o
 .debug_info    0x00002b5a     0x1cf2 /home/jon/dev_src/SEU-Detect-Correct/build/tasks.o
 .debug_info    0x0000484c      0x923 /home/jon/dev_src/SEU-Detect-Correct/build/event_groups.o
 .debug_info    0x0000516f      0x926 /home/jon/dev_src/SEU-Detect-Correct/build/timers.o
 .debug_info    0x00005a95      0x402 /home/jon/dev_src/SEU-Detect-Correct/build/heap_4.o
 .debug_info    0x00005e97      0x274 /home/jon/dev_src/SEU-Detect-Correct/build/stm32f4xx_syscfg.o
 .debug_info    0x0000610b      0x541 /home/jon/dev_src/SEU-Detect-Correct/build/misc.o
 .debug_info    0x0000664c      0xc40 /home/jon/dev_src/SEU-Detect-Correct/build/stm32f4xx_adc.o
 .debug_info    0x0000728c      0x642 /home/jon/dev_src/SEU-Detect-Correct/build/stm32f4xx_dac.o
 .debug_info    0x000078ce      0x741 /home/jon/dev_src/SEU-Detect-Correct/build/stm32f4xx_dma.o
 .debug_info    0x0000800f      0x357 /home/jon/dev_src/SEU-Detect-Correct/build/stm32f4xx_exti.o
 .debug_info    0x00008366      0x727 /home/jon/dev_src/SEU-Detect-Correct/build/stm32f4xx_flash.o
 .debug_info    0x00008a8d      0x61a /home/jon/dev_src/SEU-Detect-Correct/build/stm32f4xx_gpio.o
 .debug_info    0x000090a7      0xb00 /home/jon/dev_src/SEU-Detect-Correct/build/stm32f4xx_i2c.o
 .debug_info    0x00009ba7      0xc59 /home/jon/dev_src/SEU-Detect-Correct/build/stm32f4xx_rcc.o
 .debug_info    0x0000a800      0xb0f /home/jon/dev_src/SEU-Detect-Correct/build/stm32f4xx_spi.o
 .debug_info    0x0000b30f     0x1c69 /home/jon/dev_src/SEU-Detect-Correct/build/stm32f4xx_tim.o
 .debug_info    0x0000cf78      0x9ca /home/jon/dev_src/SEU-Detect-Correct/build/stm32f4xx_usart.o
 .debug_info    0x0000d942      0x287 /home/jon/dev_src/SEU-Detect-Correct/build/stm32f4xx_rng.o
 .debug_info    0x0000dbc9      0xad1 build/trace_functions.o

.debug_abbrev   0x00000000     0x262f
 .debug_abbrev  0x00000000      0x138 /home/jon/dev_src/SEU-Detect-Correct/build/system_stm32f4xx.o
 .debug_abbrev  0x00000138      0x1c7 /home/jon/dev_src/SEU-Detect-Correct/build/main.o
 .debug_abbrev  0x000002ff      0x14e /home/jon/dev_src/SEU-Detect-Correct/build/syscalls.o
 .debug_abbrev  0x0000044d      0x1c4 /home/jon/dev_src/SEU-Detect-Correct/build/port.o
 .debug_abbrev  0x00000611       0xbc /home/jon/dev_src/SEU-Detect-Correct/build/list.o
 .debug_abbrev  0x000006cd      0x1e2 /home/jon/dev_src/SEU-Detect-Correct/build/queue.o
 .debug_abbrev  0x000008af      0x239 /home/jon/dev_src/SEU-Detect-Correct/build/tasks.o
 .debug_abbrev  0x00000ae8      0x1d7 /home/jon/dev_src/SEU-Detect-Correct/build/event_groups.o
 .debug_abbrev  0x00000cbf      0x19c /home/jon/dev_src/SEU-Detect-Correct/build/timers.o
 .debug_abbrev  0x00000e5b      0x1e5 /home/jon/dev_src/SEU-Detect-Correct/build/heap_4.o
 .debug_abbrev  0x00001040      0x133 /home/jon/dev_src/SEU-Detect-Correct/build/stm32f4xx_syscfg.o
 .debug_abbrev  0x00001173      0x147 /home/jon/dev_src/SEU-Detect-Correct/build/misc.o
 .debug_abbrev  0x000012ba      0x198 /home/jon/dev_src/SEU-Detect-Correct/build/stm32f4xx_adc.o
 .debug_abbrev  0x00001452      0x17e /home/jon/dev_src/SEU-Detect-Correct/build/stm32f4xx_dac.o
 .debug_abbrev  0x000015d0      0x157 /home/jon/dev_src/SEU-Detect-Correct/build/stm32f4xx_dma.o
 .debug_abbrev  0x00001727      0x1a9 /home/jon/dev_src/SEU-Detect-Correct/build/stm32f4xx_exti.o
 .debug_abbrev  0x000018d0      0x17c /home/jon/dev_src/SEU-Detect-Correct/build/stm32f4xx_flash.o
 .debug_abbrev  0x00001a4c      0x18d /home/jon/dev_src/SEU-Detect-Correct/build/stm32f4xx_gpio.o
 .debug_abbrev  0x00001bd9      0x166 /home/jon/dev_src/SEU-Detect-Correct/build/stm32f4xx_i2c.o
 .debug_abbrev  0x00001d3f      0x1c9 /home/jon/dev_src/SEU-Detect-Correct/build/stm32f4xx_rcc.o
 .debug_abbrev  0x00001f08      0x169 /home/jon/dev_src/SEU-Detect-Correct/build/stm32f4xx_spi.o
 .debug_abbrev  0x00002071      0x16f /home/jon/dev_src/SEU-Detect-Correct/build/stm32f4xx_tim.o
 .debug_abbrev  0x000021e0      0x157 /home/jon/dev_src/SEU-Detect-Correct/build/stm32f4xx_usart.o
 .debug_abbrev  0x00002337      0x146 /home/jon/dev_src/SEU-Detect-Correct/build/stm32f4xx_rng.o
 .debug_abbrev  0x0000247d      0x1b2 build/trace_functions.o

.debug_aranges  0x00000000     0x13b0
 .debug_aranges
                0x00000000       0x30 /home/jon/dev_src/SEU-Detect-Correct/build/system_stm32f4xx.o
 .debug_aranges
                0x00000030       0x58 /home/jon/dev_src/SEU-Detect-Correct/build/main.o
 .debug_aranges
                0x00000088       0x68 /home/jon/dev_src/SEU-Detect-Correct/build/syscalls.o
 .debug_aranges
                0x000000f0       0x98 /home/jon/dev_src/SEU-Detect-Correct/build/port.o
 .debug_aranges
                0x00000188       0x40 /home/jon/dev_src/SEU-Detect-Correct/build/list.o
 .debug_aranges
                0x000001c8      0x118 /home/jon/dev_src/SEU-Detect-Correct/build/queue.o
 .debug_aranges
                0x000002e0      0x1d8 /home/jon/dev_src/SEU-Detect-Correct/build/tasks.o
 .debug_aranges
                0x000004b8       0x88 /home/jon/dev_src/SEU-Detect-Correct/build/event_groups.o
 .debug_aranges
                0x00000540       0x98 /home/jon/dev_src/SEU-Detect-Correct/build/timers.o
 .debug_aranges
                0x000005d8       0x58 /home/jon/dev_src/SEU-Detect-Correct/build/heap_4.o
 .debug_aranges
                0x00000630       0x48 /home/jon/dev_src/SEU-Detect-Correct/build/stm32f4xx_syscfg.o
 .debug_aranges
                0x00000678       0x40 /home/jon/dev_src/SEU-Detect-Correct/build/misc.o
 .debug_aranges
                0x000006b8      0x148 /home/jon/dev_src/SEU-Detect-Correct/build/stm32f4xx_adc.o
 .debug_aranges
                0x00000800       0xa0 /home/jon/dev_src/SEU-Detect-Correct/build/stm32f4xx_dac.o
 .debug_aranges
                0x000008a0       0xb0 /home/jon/dev_src/SEU-Detect-Correct/build/stm32f4xx_dma.o
 .debug_aranges
                0x00000950       0x58 /home/jon/dev_src/SEU-Detect-Correct/build/stm32f4xx_exti.o
 .debug_aranges
                0x000009a8      0x108 /home/jon/dev_src/SEU-Detect-Correct/build/stm32f4xx_flash.o
 .debug_aranges
                0x00000ab0       0x88 /home/jon/dev_src/SEU-Detect-Correct/build/stm32f4xx_gpio.o
 .debug_aranges
                0x00000b38      0x120 /home/jon/dev_src/SEU-Detect-Correct/build/stm32f4xx_i2c.o
 .debug_aranges
                0x00000c58      0x178 /home/jon/dev_src/SEU-Detect-Correct/build/stm32f4xx_rcc.o
 .debug_aranges
                0x00000dd0       0xe0 /home/jon/dev_src/SEU-Detect-Correct/build/stm32f4xx_spi.o
 .debug_aranges
                0x00000eb0      0x2f8 /home/jon/dev_src/SEU-Detect-Correct/build/stm32f4xx_tim.o
 .debug_aranges
                0x000011a8      0x100 /home/jon/dev_src/SEU-Detect-Correct/build/stm32f4xx_usart.o
 .debug_aranges
                0x000012a8       0x58 /home/jon/dev_src/SEU-Detect-Correct/build/stm32f4xx_rng.o
 .debug_aranges
                0x00001300       0xb0 build/trace_functions.o

.debug_ranges   0x00000000     0x1220
 .debug_ranges  0x00000000       0x20 /home/jon/dev_src/SEU-Detect-Correct/build/system_stm32f4xx.o
 .debug_ranges  0x00000020       0x48 /home/jon/dev_src/SEU-Detect-Correct/build/main.o
 .debug_ranges  0x00000068       0x58 /home/jon/dev_src/SEU-Detect-Correct/build/syscalls.o
 .debug_ranges  0x000000c0       0x88 /home/jon/dev_src/SEU-Detect-Correct/build/port.o
 .debug_ranges  0x00000148       0x30 /home/jon/dev_src/SEU-Detect-Correct/build/list.o
 .debug_ranges  0x00000178      0x108 /home/jon/dev_src/SEU-Detect-Correct/build/queue.o
 .debug_ranges  0x00000280      0x1c8 /home/jon/dev_src/SEU-Detect-Correct/build/tasks.o
 .debug_ranges  0x00000448       0x78 /home/jon/dev_src/SEU-Detect-Correct/build/event_groups.o
 .debug_ranges  0x000004c0       0x88 /home/jon/dev_src/SEU-Detect-Correct/build/timers.o
 .debug_ranges  0x00000548       0x48 /home/jon/dev_src/SEU-Detect-Correct/build/heap_4.o
 .debug_ranges  0x00000590       0x38 /home/jon/dev_src/SEU-Detect-Correct/build/stm32f4xx_syscfg.o
 .debug_ranges  0x000005c8       0x30 /home/jon/dev_src/SEU-Detect-Correct/build/misc.o
 .debug_ranges  0x000005f8      0x138 /home/jon/dev_src/SEU-Detect-Correct/build/stm32f4xx_adc.o
 .debug_ranges  0x00000730       0x90 /home/jon/dev_src/SEU-Detect-Correct/build/stm32f4xx_dac.o
 .debug_ranges  0x000007c0       0xa0 /home/jon/dev_src/SEU-Detect-Correct/build/stm32f4xx_dma.o
 .debug_ranges  0x00000860       0x48 /home/jon/dev_src/SEU-Detect-Correct/build/stm32f4xx_exti.o
 .debug_ranges  0x000008a8       0xf8 /home/jon/dev_src/SEU-Detect-Correct/build/stm32f4xx_flash.o
 .debug_ranges  0x000009a0       0x78 /home/jon/dev_src/SEU-Detect-Correct/build/stm32f4xx_gpio.o
 .debug_ranges  0x00000a18      0x110 /home/jon/dev_src/SEU-Detect-Correct/build/stm32f4xx_i2c.o
 .debug_ranges  0x00000b28      0x168 /home/jon/dev_src/SEU-Detect-Correct/build/stm32f4xx_rcc.o
 .debug_ranges  0x00000c90       0xd0 /home/jon/dev_src/SEU-Detect-Correct/build/stm32f4xx_spi.o
 .debug_ranges  0x00000d60      0x2e8 /home/jon/dev_src/SEU-Detect-Correct/build/stm32f4xx_tim.o
 .debug_ranges  0x00001048       0xf0 /home/jon/dev_src/SEU-Detect-Correct/build/stm32f4xx_usart.o
 .debug_ranges  0x00001138       0x48 /home/jon/dev_src/SEU-Detect-Correct/build/stm32f4xx_rng.o
 .debug_ranges  0x00001180       0xa0 build/trace_functions.o

.debug_line     0x00000000     0x7590
 .debug_line    0x00000000      0x244 /home/jon/dev_src/SEU-Detect-Correct/build/system_stm32f4xx.o
 .debug_line    0x00000244      0x366 /home/jon/dev_src/SEU-Detect-Correct/build/main.o
 .debug_line    0x000005aa      0x2bb /home/jon/dev_src/SEU-Detect-Correct/build/syscalls.o
 .debug_line    0x00000865      0x3d0 /home/jon/dev_src/SEU-Detect-Correct/build/port.o
 .debug_line    0x00000c35      0x215 /home/jon/dev_src/SEU-Detect-Correct/build/list.o
 .debug_line    0x00000e4a      0xa0e /home/jon/dev_src/SEU-Detect-Correct/build/queue.o
 .debug_line    0x00001858      0xe08 /home/jon/dev_src/SEU-Detect-Correct/build/tasks.o
 .debug_line    0x00002660      0x47e /home/jon/dev_src/SEU-Detect-Correct/build/event_groups.o
 .debug_line    0x00002ade      0x42d /home/jon/dev_src/SEU-Detect-Correct/build/timers.o
 .debug_line    0x00002f0b      0x332 /home/jon/dev_src/SEU-Detect-Correct/build/heap_4.o
 .debug_line    0x0000323d      0x249 /home/jon/dev_src/SEU-Detect-Correct/build/stm32f4xx_syscfg.o
 .debug_line    0x00003486      0x28b /home/jon/dev_src/SEU-Detect-Correct/build/misc.o
 .debug_line    0x00003711      0x59b /home/jon/dev_src/SEU-Detect-Correct/build/stm32f4xx_adc.o
 .debug_line    0x00003cac      0x39e /home/jon/dev_src/SEU-Detect-Correct/build/stm32f4xx_dac.o
 .debug_line    0x0000404a      0x422 /home/jon/dev_src/SEU-Detect-Correct/build/stm32f4xx_dma.o
 .debug_line    0x0000446c      0x2ef /home/jon/dev_src/SEU-Detect-Correct/build/stm32f4xx_exti.o
 .debug_line    0x0000475b      0x4ce /home/jon/dev_src/SEU-Detect-Correct/build/stm32f4xx_flash.o
 .debug_line    0x00004c29      0x389 /home/jon/dev_src/SEU-Detect-Correct/build/stm32f4xx_gpio.o
 .debug_line    0x00004fb2      0x521 /home/jon/dev_src/SEU-Detect-Correct/build/stm32f4xx_i2c.o
 .debug_line    0x000054d3      0x5eb /home/jon/dev_src/SEU-Detect-Correct/build/stm32f4xx_rcc.o
 .debug_line    0x00005abe      0x498 /home/jon/dev_src/SEU-Detect-Correct/build/stm32f4xx_spi.o
 .debug_line    0x00005f56      0xabb /home/jon/dev_src/SEU-Detect-Correct/build/stm32f4xx_tim.o
 .debug_line    0x00006a11      0x4e8 /home/jon/dev_src/SEU-Detect-Correct/build/stm32f4xx_usart.o
 .debug_line    0x00006ef9      0x26d /home/jon/dev_src/SEU-Detect-Correct/build/stm32f4xx_rng.o
 .debug_line    0x00007166      0x42a build/trace_functions.o

.debug_str      0x00000000     0x5df8
 .debug_str     0x00000000      0x37e /home/jon/dev_src/SEU-Detect-Correct/build/system_stm32f4xx.o
                                0x3f2 (size before relaxing)
 .debug_str     0x0000037e      0x33b /home/jon/dev_src/SEU-Detect-Correct/build/main.o
                                0x547 (size before relaxing)
 .debug_str     0x000006b9      0x191 /home/jon/dev_src/SEU-Detect-Correct/build/syscalls.o
                                0x3e8 (size before relaxing)
 .debug_str     0x0000084a      0x29b /home/jon/dev_src/SEU-Detect-Correct/build/port.o
                                0x462 (size before relaxing)
 .debug_str     0x00000ae5      0x149 /home/jon/dev_src/SEU-Detect-Correct/build/list.o
                                0x2ef (size before relaxing)
 .debug_str     0x00000c2e      0x52c /home/jon/dev_src/SEU-Detect-Correct/build/queue.o
                                0x817 (size before relaxing)
 .debug_str     0x0000115a      0xaf4 /home/jon/dev_src/SEU-Detect-Correct/build/tasks.o
                                0xeea (size before relaxing)
 .debug_str     0x00001c4e      0x2af /home/jon/dev_src/SEU-Detect-Correct/build/event_groups.o
                                0x5a4 (size before relaxing)
 .debug_str     0x00001efd      0x3c7 /home/jon/dev_src/SEU-Detect-Correct/build/timers.o
                                0x6bb (size before relaxing)
 .debug_str     0x000022c4      0x1fb /home/jon/dev_src/SEU-Detect-Correct/build/heap_4.o
                                0x3d6 (size before relaxing)
 .debug_str     0x000024bf      0x19b /home/jon/dev_src/SEU-Detect-Correct/build/stm32f4xx_syscfg.o
                                0x356 (size before relaxing)
 .debug_str     0x0000265a      0x1e0 /home/jon/dev_src/SEU-Detect-Correct/build/misc.o
                                0x430 (size before relaxing)
 .debug_str     0x0000283a      0x656 /home/jon/dev_src/SEU-Detect-Correct/build/stm32f4xx_adc.o
                                0x866 (size before relaxing)
 .debug_str     0x00002e90      0x298 /home/jon/dev_src/SEU-Detect-Correct/build/stm32f4xx_dac.o
                                0x4b5 (size before relaxing)
 .debug_str     0x00003128      0x39f /home/jon/dev_src/SEU-Detect-Correct/build/stm32f4xx_dma.o
                                0x5a4 (size before relaxing)
 .debug_str     0x000034c7      0x1e2 /home/jon/dev_src/SEU-Detect-Correct/build/stm32f4xx_exti.o
                                0x3bb (size before relaxing)
 .debug_str     0x000036a9      0x3c4 /home/jon/dev_src/SEU-Detect-Correct/build/stm32f4xx_flash.o
                                0x5f4 (size before relaxing)
 .debug_str     0x00003a6d      0x1a2 /home/jon/dev_src/SEU-Detect-Correct/build/stm32f4xx_gpio.o
                                0x505 (size before relaxing)
 .debug_str     0x00003c0f      0x45e /home/jon/dev_src/SEU-Detect-Correct/build/stm32f4xx_i2c.o
                                0x6c7 (size before relaxing)
 .debug_str     0x0000406d      0x512 /home/jon/dev_src/SEU-Detect-Correct/build/stm32f4xx_rcc.o
                                0x8b2 (size before relaxing)
 .debug_str     0x0000457f      0x3ae /home/jon/dev_src/SEU-Detect-Correct/build/stm32f4xx_spi.o
                                0x6ec (size before relaxing)
 .debug_str     0x0000492d      0xb8a /home/jon/dev_src/SEU-Detect-Correct/build/stm32f4xx_tim.o
                                0xe32 (size before relaxing)
 .debug_str     0x000054b7      0x3ae /home/jon/dev_src/SEU-Detect-Correct/build/stm32f4xx_usart.o
                                0x6f1 (size before relaxing)
 .debug_str     0x00005865       0xf4 /home/jon/dev_src/SEU-Detect-Correct/build/stm32f4xx_rng.o
                                0x2db (size before relaxing)
 .debug_str     0x00005959      0x49f build/trace_functions.o
                                0x5c9 (size before relaxing)

.comment        0x00000000       0x6e
 .comment       0x00000000       0x6e /home/jon/dev_src/SEU-Detect-Correct/build/system_stm32f4xx.o
                                 0x6f (size before relaxing)
 .comment       0x0000006e       0x6f /home/jon/dev_src/SEU-Detect-Correct/build/main.o
 .comment       0x0000006e       0x6f /home/jon/dev_src/SEU-Detect-Correct/build/syscalls.o
 .comment       0x0000006e       0x6f /home/jon/dev_src/SEU-Detect-Correct/build/port.o
 .comment       0x0000006e       0x6f /home/jon/dev_src/SEU-Detect-Correct/build/list.o
 .comment       0x0000006e       0x6f /home/jon/dev_src/SEU-Detect-Correct/build/queue.o
 .comment       0x0000006e       0x6f /home/jon/dev_src/SEU-Detect-Correct/build/tasks.o
 .comment       0x0000006e       0x6f /home/jon/dev_src/SEU-Detect-Correct/build/event_groups.o
 .comment       0x0000006e       0x6f /home/jon/dev_src/SEU-Detect-Correct/build/timers.o
 .comment       0x0000006e       0x6f /home/jon/dev_src/SEU-Detect-Correct/build/heap_4.o
 .comment       0x0000006e       0x6f /home/jon/dev_src/SEU-Detect-Correct/build/stm32f4xx_syscfg.o
 .comment       0x0000006e       0x6f /home/jon/dev_src/SEU-Detect-Correct/build/misc.o
 .comment       0x0000006e       0x6f /home/jon/dev_src/SEU-Detect-Correct/build/stm32f4xx_adc.o
 .comment       0x0000006e       0x6f /home/jon/dev_src/SEU-Detect-Correct/build/stm32f4xx_dac.o
 .comment       0x0000006e       0x6f /home/jon/dev_src/SEU-Detect-Correct/build/stm32f4xx_dma.o
 .comment       0x0000006e       0x6f /home/jon/dev_src/SEU-Detect-Correct/build/stm32f4xx_exti.o
 .comment       0x0000006e       0x6f /home/jon/dev_src/SEU-Detect-Correct/build/stm32f4xx_flash.o
 .comment       0x0000006e       0x6f /home/jon/dev_src/SEU-Detect-Correct/build/stm32f4xx_gpio.o
 .comment       0x0000006e       0x6f /home/jon/dev_src/SEU-Detect-Correct/build/stm32f4xx_i2c.o
 .comment       0x0000006e       0x6f /home/jon/dev_src/SEU-Detect-Correct/build/stm32f4xx_rcc.o
 .comment       0x0000006e       0x6f /home/jon/dev_src/SEU-Detect-Correct/build/stm32f4xx_spi.o
 .comment       0x0000006e       0x6f /home/jon/dev_src/SEU-Detect-Correct/build/stm32f4xx_tim.o
 .comment       0x0000006e       0x6f /home/jon/dev_src/SEU-Detect-Correct/build/stm32f4xx_usart.o
 .comment       0x0000006e       0x6f /home/jon/dev_src/SEU-Detect-Correct/build/stm32f4xx_rng.o
 .comment       0x0000006e       0x6f build/trace_functions.o

.ARM.attributes
                0x00000000       0x35
 .ARM.attributes
                0x00000000       0x37 /home/jon/dev_src/SEU-Detect-Correct/build/system_stm32f4xx.o
 .ARM.attributes
                0x00000037       0x37 /home/jon/dev_src/SEU-Detect-Correct/build/main.o
 .ARM.attributes
                0x0000006e       0x37 /home/jon/dev_src/SEU-Detect-Correct/build/syscalls.o
 .ARM.attributes
                0x000000a5       0x37 /home/jon/dev_src/SEU-Detect-Correct/build/port.o
 .ARM.attributes
                0x000000dc       0x37 /home/jon/dev_src/SEU-Detect-Correct/build/list.o
 .ARM.attributes
                0x00000113       0x37 /home/jon/dev_src/SEU-Detect-Correct/build/queue.o
 .ARM.attributes
                0x0000014a       0x37 /home/jon/dev_src/SEU-Detect-Correct/build/tasks.o
 .ARM.attributes
                0x00000181       0x37 /home/jon/dev_src/SEU-Detect-Correct/build/event_groups.o
 .ARM.attributes
                0x000001b8       0x37 /home/jon/dev_src/SEU-Detect-Correct/build/timers.o
 .ARM.attributes
                0x000001ef       0x37 /home/jon/dev_src/SEU-Detect-Correct/build/heap_4.o
 .ARM.attributes
                0x00000226       0x37 /home/jon/dev_src/SEU-Detect-Correct/build/stm32f4xx_syscfg.o
 .ARM.attributes
                0x0000025d       0x37 /home/jon/dev_src/SEU-Detect-Correct/build/misc.o
 .ARM.attributes
                0x00000294       0x37 /home/jon/dev_src/SEU-Detect-Correct/build/stm32f4xx_adc.o
 .ARM.attributes
                0x000002cb       0x37 /home/jon/dev_src/SEU-Detect-Correct/build/stm32f4xx_dac.o
 .ARM.attributes
                0x00000302       0x37 /home/jon/dev_src/SEU-Detect-Correct/build/stm32f4xx_dma.o
 .ARM.attributes
                0x00000339       0x37 /home/jon/dev_src/SEU-Detect-Correct/build/stm32f4xx_exti.o
 .ARM.attributes
                0x00000370       0x37 /home/jon/dev_src/SEU-Detect-Correct/build/stm32f4xx_flash.o
 .ARM.attributes
                0x000003a7       0x37 /home/jon/dev_src/SEU-Detect-Correct/build/stm32f4xx_gpio.o
 .ARM.attributes
                0x000003de       0x37 /home/jon/dev_src/SEU-Detect-Correct/build/stm32f4xx_i2c.o
 .ARM.attributes
                0x00000415       0x37 /home/jon/dev_src/SEU-Detect-Correct/build/stm32f4xx_rcc.o
 .ARM.attributes
                0x0000044c       0x37 /home/jon/dev_src/SEU-Detect-Correct/build/stm32f4xx_spi.o
 .ARM.attributes
                0x00000483       0x37 /home/jon/dev_src/SEU-Detect-Correct/build/stm32f4xx_tim.o
 .ARM.attributes
                0x000004ba       0x37 /home/jon/dev_src/SEU-Detect-Correct/build/stm32f4xx_usart.o
 .ARM.attributes
                0x000004f1       0x37 /home/jon/dev_src/SEU-Detect-Correct/build/stm32f4xx_rng.o
 .ARM.attributes
                0x00000528       0x37 build/trace_functions.o
 .ARM.attributes
                0x0000055f       0x21 /home/jon/dev_src/SEU-Detect-Correct/build/startup_stm32f4xx.o
 .ARM.attributes
                0x00000580       0x34 /home/jon/gcc-arm-none-eabi-5_2-2015q4/arm-none-eabi/lib/armv7e-m/fpu/libc.a(lib_a-errno.o)
 .ARM.attributes
                0x000005b4       0x34 /home/jon/gcc-arm-none-eabi-5_2-2015q4/arm-none-eabi/lib/armv7e-m/fpu/libc.a(lib_a-impure.o)
 .ARM.attributes
                0x000005e8       0x34 /home/jon/gcc-arm-none-eabi-5_2-2015q4/arm-none-eabi/lib/armv7e-m/fpu/libc.a(lib_a-memcmp.o)
 .ARM.attributes
                0x0000061c       0x20 /home/jon/gcc-arm-none-eabi-5_2-2015q4/arm-none-eabi/lib/armv7e-m/fpu/libc.a(lib_a-memcpy.o)
 .ARM.attributes
                0x0000063c       0x34 /home/jon/gcc-arm-none-eabi-5_2-2015q4/arm-none-eabi/lib/armv7e-m/fpu/libc.a(lib_a-memset.o)
 .ARM.attributes
                0x00000670       0x34 /home/jon/gcc-arm-none-eabi-5_2-2015q4/arm-none-eabi/lib/armv7e-m/fpu/libc.a(lib_a-puts.o)
 .ARM.attributes
                0x000006a4       0x20 /home/jon/gcc-arm-none-eabi-5_2-2015q4/arm-none-eabi/lib/armv7e-m/fpu/libc.a(lib_a-strlen.o)
 .ARM.attributes
                0x000006c4       0x34 /home/jon/gcc-arm-none-eabi-5_2-2015q4/arm-none-eabi/lib/armv7e-m/fpu/libc.a(lib_a-findfp.o)
 .ARM.attributes
                0x000006f8       0x34 /home/jon/gcc-arm-none-eabi-5_2-2015q4/arm-none-eabi/lib/armv7e-m/fpu/libc.a(lib_a-fvwrite.o)
 .ARM.attributes
                0x0000072c       0x34 /home/jon/gcc-arm-none-eabi-5_2-2015q4/arm-none-eabi/lib/armv7e-m/fpu/libc.a(lib_a-fwalk.o)
 .ARM.attributes
                0x00000760       0x34 /home/jon/gcc-arm-none-eabi-5_2-2015q4/arm-none-eabi/lib/armv7e-m/fpu/libc.a(lib_a-mallocr.o)
 .ARM.attributes
                0x00000794       0x20 /home/jon/gcc-arm-none-eabi-5_2-2015q4/arm-none-eabi/lib/armv7e-m/fpu/libc.a(lib_a-memchr.o)
 .ARM.attributes
                0x000007b4       0x34 /home/jon/gcc-arm-none-eabi-5_2-2015q4/arm-none-eabi/lib/armv7e-m/fpu/libc.a(lib_a-memmove.o)
 .ARM.attributes
                0x000007e8       0x34 /home/jon/gcc-arm-none-eabi-5_2-2015q4/arm-none-eabi/lib/armv7e-m/fpu/libc.a(lib_a-mlock.o)
 .ARM.attributes
                0x0000081c       0x34 /home/jon/gcc-arm-none-eabi-5_2-2015q4/arm-none-eabi/lib/armv7e-m/fpu/libc.a(lib_a-reallocr.o)
 .ARM.attributes
                0x00000850       0x34 /home/jon/gcc-arm-none-eabi-5_2-2015q4/arm-none-eabi/lib/armv7e-m/fpu/libc.a(lib_a-sbrkr.o)
 .ARM.attributes
                0x00000884       0x34 /home/jon/gcc-arm-none-eabi-5_2-2015q4/arm-none-eabi/lib/armv7e-m/fpu/libc.a(lib_a-stdio.o)
 .ARM.attributes
                0x000008b8       0x34 /home/jon/gcc-arm-none-eabi-5_2-2015q4/arm-none-eabi/lib/armv7e-m/fpu/libc.a(lib_a-writer.o)
 .ARM.attributes
                0x000008ec       0x34 /home/jon/gcc-arm-none-eabi-5_2-2015q4/arm-none-eabi/lib/armv7e-m/fpu/libc.a(lib_a-wsetup.o)
 .ARM.attributes
                0x00000920       0x34 /home/jon/gcc-arm-none-eabi-5_2-2015q4/arm-none-eabi/lib/armv7e-m/fpu/libc.a(lib_a-closer.o)
 .ARM.attributes
                0x00000954       0x34 /home/jon/gcc-arm-none-eabi-5_2-2015q4/arm-none-eabi/lib/armv7e-m/fpu/libc.a(lib_a-fclose.o)
 .ARM.attributes
                0x00000988       0x34 /home/jon/gcc-arm-none-eabi-5_2-2015q4/arm-none-eabi/lib/armv7e-m/fpu/libc.a(lib_a-fflush.o)
 .ARM.attributes
                0x000009bc       0x34 /home/jon/gcc-arm-none-eabi-5_2-2015q4/arm-none-eabi/lib/armv7e-m/fpu/libc.a(lib_a-freer.o)
 .ARM.attributes
                0x000009f0       0x34 /home/jon/gcc-arm-none-eabi-5_2-2015q4/arm-none-eabi/lib/armv7e-m/fpu/libc.a(lib_a-lseekr.o)
 .ARM.attributes
                0x00000a24       0x34 /home/jon/gcc-arm-none-eabi-5_2-2015q4/arm-none-eabi/lib/armv7e-m/fpu/libc.a(lib_a-makebuf.o)
 .ARM.attributes
                0x00000a58       0x34 /home/jon/gcc-arm-none-eabi-5_2-2015q4/arm-none-eabi/lib/armv7e-m/fpu/libc.a(lib_a-readr.o)
 .ARM.attributes
                0x00000a8c       0x34 /home/jon/gcc-arm-none-eabi-5_2-2015q4/arm-none-eabi/lib/armv7e-m/fpu/libc.a(lib_a-reent.o)
 .ARM.attributes
                0x00000ac0       0x34 /home/jon/gcc-arm-none-eabi-5_2-2015q4/arm-none-eabi/lib/armv7e-m/fpu/libc.a(lib_a-fstatr.o)
 .ARM.attributes
                0x00000af4       0x34 /home/jon/gcc-arm-none-eabi-5_2-2015q4/arm-none-eabi/lib/armv7e-m/fpu/libc.a(lib_a-isattyr.o)
 .ARM.attributes
                0x00000b28       0x34 /home/jon/gcc-arm-none-eabi-5_2-2015q4/arm-none-eabi/lib/armv7e-m/fpu/libm.a(lib_a-sf_sin.o)
 .ARM.attributes
                0x00000b5c       0x34 /home/jon/gcc-arm-none-eabi-5_2-2015q4/arm-none-eabi/lib/armv7e-m/fpu/libm.a(lib_a-ef_rem_pio2.o)
 .ARM.attributes
                0x00000b90       0x34 /home/jon/gcc-arm-none-eabi-5_2-2015q4/arm-none-eabi/lib/armv7e-m/fpu/libm.a(lib_a-kf_cos.o)
 .ARM.attributes
                0x00000bc4       0x34 /home/jon/gcc-arm-none-eabi-5_2-2015q4/arm-none-eabi/lib/armv7e-m/fpu/libm.a(lib_a-kf_rem_pio2.o)
 .ARM.attributes
                0x00000bf8       0x34 /home/jon/gcc-arm-none-eabi-5_2-2015q4/arm-none-eabi/lib/armv7e-m/fpu/libm.a(lib_a-kf_sin.o)
 .ARM.attributes
                0x00000c2c       0x34 /home/jon/gcc-arm-none-eabi-5_2-2015q4/arm-none-eabi/lib/armv7e-m/fpu/libm.a(lib_a-sf_fabs.o)
 .ARM.attributes
                0x00000c60       0x34 /home/jon/gcc-arm-none-eabi-5_2-2015q4/arm-none-eabi/lib/armv7e-m/fpu/libm.a(lib_a-sf_floor.o)
 .ARM.attributes
                0x00000c94       0x34 /home/jon/gcc-arm-none-eabi-5_2-2015q4/arm-none-eabi/lib/armv7e-m/fpu/libm.a(lib_a-sf_scalbn.o)
 .ARM.attributes
                0x00000cc8       0x34 /home/jon/gcc-arm-none-eabi-5_2-2015q4/arm-none-eabi/lib/armv7e-m/fpu/libm.a(lib_a-sf_copysign.o)

.debug_frame    0x00000000     0x5fe0
 .debug_frame   0x00000000       0x80 /home/jon/dev_src/SEU-Detect-Correct/build/system_stm32f4xx.o
 .debug_frame   0x00000080      0x120 /home/jon/dev_src/SEU-Detect-Correct/build/main.o
 .debug_frame   0x000001a0      0x198 /home/jon/dev_src/SEU-Detect-Correct/build/syscalls.o
 .debug_frame   0x00000338      0x220 /home/jon/dev_src/SEU-Detect-Correct/build/port.o
 .debug_frame   0x00000558       0xd8 /home/jon/dev_src/SEU-Detect-Correct/build/list.o
 .debug_frame   0x00000630      0x518 /home/jon/dev_src/SEU-Detect-Correct/build/queue.o
 .debug_frame   0x00000b48      0x8ac /home/jon/dev_src/SEU-Detect-Correct/build/tasks.o
 .debug_frame   0x000013f4      0x240 /home/jon/dev_src/SEU-Detect-Correct/build/event_groups.o
 .debug_frame   0x00001634      0x288 /home/jon/dev_src/SEU-Detect-Correct/build/timers.o
 .debug_frame   0x000018bc      0x138 /home/jon/dev_src/SEU-Detect-Correct/build/heap_4.o
 .debug_frame   0x000019f4       0xf8 /home/jon/dev_src/SEU-Detect-Correct/build/stm32f4xx_syscfg.o
 .debug_frame   0x00001aec       0xd8 /home/jon/dev_src/SEU-Detect-Correct/build/misc.o
 .debug_frame   0x00001bc4      0x5f0 /home/jon/dev_src/SEU-Detect-Correct/build/stm32f4xx_adc.o
 .debug_frame   0x000021b4      0x2b0 /home/jon/dev_src/SEU-Detect-Correct/build/stm32f4xx_dac.o
 .debug_frame   0x00002464      0x308 /home/jon/dev_src/SEU-Detect-Correct/build/stm32f4xx_dma.o
 .debug_frame   0x0000276c      0x148 /home/jon/dev_src/SEU-Detect-Correct/build/stm32f4xx_exti.o
 .debug_frame   0x000028b4      0x478 /home/jon/dev_src/SEU-Detect-Correct/build/stm32f4xx_flash.o
 .debug_frame   0x00002d2c      0x240 /home/jon/dev_src/SEU-Detect-Correct/build/stm32f4xx_gpio.o
 .debug_frame   0x00002f6c      0x538 /home/jon/dev_src/SEU-Detect-Correct/build/stm32f4xx_i2c.o
 .debug_frame   0x000034a4      0x6d8 /home/jon/dev_src/SEU-Detect-Correct/build/stm32f4xx_rcc.o
 .debug_frame   0x00003b7c      0x3f8 /home/jon/dev_src/SEU-Detect-Correct/build/stm32f4xx_spi.o
 .debug_frame   0x00003f74      0xe70 /home/jon/dev_src/SEU-Detect-Correct/build/stm32f4xx_tim.o
 .debug_frame   0x00004de4      0x498 /home/jon/dev_src/SEU-Detect-Correct/build/stm32f4xx_usart.o
 .debug_frame   0x0000527c      0x140 /home/jon/dev_src/SEU-Detect-Correct/build/stm32f4xx_rng.o
 .debug_frame   0x000053bc      0x2fc build/trace_functions.o
 .debug_frame   0x000056b8       0x20 /home/jon/gcc-arm-none-eabi-5_2-2015q4/arm-none-eabi/lib/armv7e-m/fpu/libc.a(lib_a-errno.o)
 .debug_frame   0x000056d8       0x38 /home/jon/gcc-arm-none-eabi-5_2-2015q4/arm-none-eabi/lib/armv7e-m/fpu/libc.a(lib_a-memcmp.o)
 .debug_frame   0x00005710       0x34 /home/jon/gcc-arm-none-eabi-5_2-2015q4/arm-none-eabi/lib/armv7e-m/fpu/libc.a(lib_a-memset.o)
 .debug_frame   0x00005744       0x48 /home/jon/gcc-arm-none-eabi-5_2-2015q4/arm-none-eabi/lib/armv7e-m/fpu/libc.a(lib_a-puts.o)
 .debug_frame   0x0000578c      0x124 /home/jon/gcc-arm-none-eabi-5_2-2015q4/arm-none-eabi/lib/armv7e-m/fpu/libc.a(lib_a-findfp.o)
 .debug_frame   0x000058b0       0x68 /home/jon/gcc-arm-none-eabi-5_2-2015q4/arm-none-eabi/lib/armv7e-m/fpu/libc.a(lib_a-fvwrite.o)
 .debug_frame   0x00005918       0x54 /home/jon/gcc-arm-none-eabi-5_2-2015q4/arm-none-eabi/lib/armv7e-m/fpu/libc.a(lib_a-fwalk.o)
 .debug_frame   0x0000596c       0x58 /home/jon/gcc-arm-none-eabi-5_2-2015q4/arm-none-eabi/lib/armv7e-m/fpu/libc.a(lib_a-mallocr.o)
 .debug_frame   0x000059c4       0x30 /home/jon/gcc-arm-none-eabi-5_2-2015q4/arm-none-eabi/lib/armv7e-m/fpu/libc.a(lib_a-memmove.o)
 .debug_frame   0x000059f4       0x30 /home/jon/gcc-arm-none-eabi-5_2-2015q4/arm-none-eabi/lib/armv7e-m/fpu/libc.a(lib_a-mlock.o)
 .debug_frame   0x00005a24       0x60 /home/jon/gcc-arm-none-eabi-5_2-2015q4/arm-none-eabi/lib/armv7e-m/fpu/libc.a(lib_a-reallocr.o)
 .debug_frame   0x00005a84       0x2c /home/jon/gcc-arm-none-eabi-5_2-2015q4/arm-none-eabi/lib/armv7e-m/fpu/libc.a(lib_a-sbrkr.o)
 .debug_frame   0x00005ab0       0x88 /home/jon/gcc-arm-none-eabi-5_2-2015q4/arm-none-eabi/lib/armv7e-m/fpu/libc.a(lib_a-stdio.o)
 .debug_frame   0x00005b38       0x2c /home/jon/gcc-arm-none-eabi-5_2-2015q4/arm-none-eabi/lib/armv7e-m/fpu/libc.a(lib_a-writer.o)
 .debug_frame   0x00005b64       0x2c /home/jon/gcc-arm-none-eabi-5_2-2015q4/arm-none-eabi/lib/armv7e-m/fpu/libc.a(lib_a-wsetup.o)
 .debug_frame   0x00005b90       0x2c /home/jon/gcc-arm-none-eabi-5_2-2015q4/arm-none-eabi/lib/armv7e-m/fpu/libc.a(lib_a-closer.o)
 .debug_frame   0x00005bbc       0x44 /home/jon/gcc-arm-none-eabi-5_2-2015q4/arm-none-eabi/lib/armv7e-m/fpu/libc.a(lib_a-fclose.o)
 .debug_frame   0x00005c00       0x6c /home/jon/gcc-arm-none-eabi-5_2-2015q4/arm-none-eabi/lib/armv7e-m/fpu/libc.a(lib_a-fflush.o)
 .debug_frame   0x00005c6c       0x74 /home/jon/gcc-arm-none-eabi-5_2-2015q4/arm-none-eabi/lib/armv7e-m/fpu/libc.a(lib_a-freer.o)
 .debug_frame   0x00005ce0       0x2c /home/jon/gcc-arm-none-eabi-5_2-2015q4/arm-none-eabi/lib/armv7e-m/fpu/libc.a(lib_a-lseekr.o)
 .debug_frame   0x00005d0c       0x48 /home/jon/gcc-arm-none-eabi-5_2-2015q4/arm-none-eabi/lib/armv7e-m/fpu/libc.a(lib_a-makebuf.o)
 .debug_frame   0x00005d54       0x2c /home/jon/gcc-arm-none-eabi-5_2-2015q4/arm-none-eabi/lib/armv7e-m/fpu/libc.a(lib_a-readr.o)
 .debug_frame   0x00005d80       0x58 /home/jon/gcc-arm-none-eabi-5_2-2015q4/arm-none-eabi/lib/armv7e-m/fpu/libc.a(lib_a-reent.o)
 .debug_frame   0x00005dd8       0x2c /home/jon/gcc-arm-none-eabi-5_2-2015q4/arm-none-eabi/lib/armv7e-m/fpu/libc.a(lib_a-fstatr.o)
 .debug_frame   0x00005e04       0x2c /home/jon/gcc-arm-none-eabi-5_2-2015q4/arm-none-eabi/lib/armv7e-m/fpu/libc.a(lib_a-isattyr.o)
 .debug_frame   0x00005e30       0x34 /home/jon/gcc-arm-none-eabi-5_2-2015q4/arm-none-eabi/lib/armv7e-m/fpu/libm.a(lib_a-sf_sin.o)
 .debug_frame   0x00005e64       0x3c /home/jon/gcc-arm-none-eabi-5_2-2015q4/arm-none-eabi/lib/armv7e-m/fpu/libm.a(lib_a-ef_rem_pio2.o)
 .debug_frame   0x00005ea0       0x20 /home/jon/gcc-arm-none-eabi-5_2-2015q4/arm-none-eabi/lib/armv7e-m/fpu/libm.a(lib_a-kf_cos.o)
 .debug_frame   0x00005ec0       0x5c /home/jon/gcc-arm-none-eabi-5_2-2015q4/arm-none-eabi/lib/armv7e-m/fpu/libm.a(lib_a-kf_rem_pio2.o)
 .debug_frame   0x00005f1c       0x20 /home/jon/gcc-arm-none-eabi-5_2-2015q4/arm-none-eabi/lib/armv7e-m/fpu/libm.a(lib_a-kf_sin.o)
 .debug_frame   0x00005f3c       0x20 /home/jon/gcc-arm-none-eabi-5_2-2015q4/arm-none-eabi/lib/armv7e-m/fpu/libm.a(lib_a-sf_fabs.o)
 .debug_frame   0x00005f5c       0x20 /home/jon/gcc-arm-none-eabi-5_2-2015q4/arm-none-eabi/lib/armv7e-m/fpu/libm.a(lib_a-sf_floor.o)
 .debug_frame   0x00005f7c       0x44 /home/jon/gcc-arm-none-eabi-5_2-2015q4/arm-none-eabi/lib/armv7e-m/fpu/libm.a(lib_a-sf_scalbn.o)
 .debug_frame   0x00005fc0       0x20 /home/jon/gcc-arm-none-eabi-5_2-2015q4/arm-none-eabi/lib/armv7e-m/fpu/libm.a(lib_a-sf_copysign.o)
