Archive member included to satisfy reference by file (symbol)

/home/jon/gcc-arm-none-eabi-5_2-2015q4/arm-none-eabi/lib/armv7e-m/fpu/libc.a(lib_a-errno.o)
                              /home/jon/dev_src/SEU-Detect-Correct/build/syscalls.o (__errno)
/home/jon/gcc-arm-none-eabi-5_2-2015q4/arm-none-eabi/lib/armv7e-m/fpu/libc.a(lib_a-impure.o)
                              /home/jon/gcc-arm-none-eabi-5_2-2015q4/arm-none-eabi/lib/armv7e-m/fpu/libc.a(lib_a-errno.o) (_impure_ptr)
/home/jon/gcc-arm-none-eabi-5_2-2015q4/arm-none-eabi/lib/armv7e-m/fpu/libc.a(lib_a-memcmp.o)
                              /home/jon/dev_src/SEU-Detect-Correct/build/tasks.o (memcmp)
/home/jon/gcc-arm-none-eabi-5_2-2015q4/arm-none-eabi/lib/armv7e-m/fpu/libc.a(lib_a-memcpy.o)
                              /home/jon/dev_src/SEU-Detect-Correct/build/queue.o (memcpy)
/home/jon/gcc-arm-none-eabi-5_2-2015q4/arm-none-eabi/lib/armv7e-m/fpu/libc.a(lib_a-memset.o)
                              /home/jon/dev_src/SEU-Detect-Correct/build/syscalls.o (memset)
/home/jon/gcc-arm-none-eabi-5_2-2015q4/arm-none-eabi/lib/armv7e-m/fpu/libc.a(lib_a-puts.o)
                              /home/jon/dev_src/SEU-Detect-Correct/build/main.o (puts)
/home/jon/gcc-arm-none-eabi-5_2-2015q4/arm-none-eabi/lib/armv7e-m/fpu/libc.a(lib_a-strlen.o)
                              /home/jon/gcc-arm-none-eabi-5_2-2015q4/arm-none-eabi/lib/armv7e-m/fpu/libc.a(lib_a-puts.o) (strlen)
/home/jon/gcc-arm-none-eabi-5_2-2015q4/arm-none-eabi/lib/armv7e-m/fpu/libc.a(lib_a-findfp.o)
                              /home/jon/gcc-arm-none-eabi-5_2-2015q4/arm-none-eabi/lib/armv7e-m/fpu/libc.a(lib_a-puts.o) (__sinit)
/home/jon/gcc-arm-none-eabi-5_2-2015q4/arm-none-eabi/lib/armv7e-m/fpu/libc.a(lib_a-fvwrite.o)
                              /home/jon/gcc-arm-none-eabi-5_2-2015q4/arm-none-eabi/lib/armv7e-m/fpu/libc.a(lib_a-puts.o) (__sfvwrite_r)
/home/jon/gcc-arm-none-eabi-5_2-2015q4/arm-none-eabi/lib/armv7e-m/fpu/libc.a(lib_a-fwalk.o)
                              /home/jon/gcc-arm-none-eabi-5_2-2015q4/arm-none-eabi/lib/armv7e-m/fpu/libc.a(lib_a-findfp.o) (_fwalk)
/home/jon/gcc-arm-none-eabi-5_2-2015q4/arm-none-eabi/lib/armv7e-m/fpu/libc.a(lib_a-mallocr.o)
                              /home/jon/gcc-arm-none-eabi-5_2-2015q4/arm-none-eabi/lib/armv7e-m/fpu/libc.a(lib_a-findfp.o) (_malloc_r)
/home/jon/gcc-arm-none-eabi-5_2-2015q4/arm-none-eabi/lib/armv7e-m/fpu/libc.a(lib_a-memchr.o)
                              /home/jon/gcc-arm-none-eabi-5_2-2015q4/arm-none-eabi/lib/armv7e-m/fpu/libc.a(lib_a-fvwrite.o) (memchr)
/home/jon/gcc-arm-none-eabi-5_2-2015q4/arm-none-eabi/lib/armv7e-m/fpu/libc.a(lib_a-memmove.o)
                              /home/jon/gcc-arm-none-eabi-5_2-2015q4/arm-none-eabi/lib/armv7e-m/fpu/libc.a(lib_a-fvwrite.o) (memmove)
/home/jon/gcc-arm-none-eabi-5_2-2015q4/arm-none-eabi/lib/armv7e-m/fpu/libc.a(lib_a-mlock.o)
                              /home/jon/gcc-arm-none-eabi-5_2-2015q4/arm-none-eabi/lib/armv7e-m/fpu/libc.a(lib_a-mallocr.o) (__malloc_lock)
/home/jon/gcc-arm-none-eabi-5_2-2015q4/arm-none-eabi/lib/armv7e-m/fpu/libc.a(lib_a-reallocr.o)
                              /home/jon/gcc-arm-none-eabi-5_2-2015q4/arm-none-eabi/lib/armv7e-m/fpu/libc.a(lib_a-fvwrite.o) (_realloc_r)
/home/jon/gcc-arm-none-eabi-5_2-2015q4/arm-none-eabi/lib/armv7e-m/fpu/libc.a(lib_a-sbrkr.o)
                              /home/jon/gcc-arm-none-eabi-5_2-2015q4/arm-none-eabi/lib/armv7e-m/fpu/libc.a(lib_a-mallocr.o) (_sbrk_r)
/home/jon/gcc-arm-none-eabi-5_2-2015q4/arm-none-eabi/lib/armv7e-m/fpu/libc.a(lib_a-stdio.o)
                              /home/jon/gcc-arm-none-eabi-5_2-2015q4/arm-none-eabi/lib/armv7e-m/fpu/libc.a(lib_a-findfp.o) (__sread)
/home/jon/gcc-arm-none-eabi-5_2-2015q4/arm-none-eabi/lib/armv7e-m/fpu/libc.a(lib_a-writer.o)
                              /home/jon/gcc-arm-none-eabi-5_2-2015q4/arm-none-eabi/lib/armv7e-m/fpu/libc.a(lib_a-stdio.o) (_write_r)
/home/jon/gcc-arm-none-eabi-5_2-2015q4/arm-none-eabi/lib/armv7e-m/fpu/libc.a(lib_a-wsetup.o)
                              /home/jon/gcc-arm-none-eabi-5_2-2015q4/arm-none-eabi/lib/armv7e-m/fpu/libc.a(lib_a-fvwrite.o) (__swsetup_r)
/home/jon/gcc-arm-none-eabi-5_2-2015q4/arm-none-eabi/lib/armv7e-m/fpu/libc.a(lib_a-closer.o)
                              /home/jon/gcc-arm-none-eabi-5_2-2015q4/arm-none-eabi/lib/armv7e-m/fpu/libc.a(lib_a-stdio.o) (_close_r)
/home/jon/gcc-arm-none-eabi-5_2-2015q4/arm-none-eabi/lib/armv7e-m/fpu/libc.a(lib_a-fclose.o)
                              /home/jon/gcc-arm-none-eabi-5_2-2015q4/arm-none-eabi/lib/armv7e-m/fpu/libc.a(lib_a-findfp.o) (_fclose_r)
/home/jon/gcc-arm-none-eabi-5_2-2015q4/arm-none-eabi/lib/armv7e-m/fpu/libc.a(lib_a-fflush.o)
                              /home/jon/gcc-arm-none-eabi-5_2-2015q4/arm-none-eabi/lib/armv7e-m/fpu/libc.a(lib_a-fclose.o) (__sflush_r)
/home/jon/gcc-arm-none-eabi-5_2-2015q4/arm-none-eabi/lib/armv7e-m/fpu/libc.a(lib_a-freer.o)
                              /home/jon/gcc-arm-none-eabi-5_2-2015q4/arm-none-eabi/lib/armv7e-m/fpu/libc.a(lib_a-fvwrite.o) (_free_r)
/home/jon/gcc-arm-none-eabi-5_2-2015q4/arm-none-eabi/lib/armv7e-m/fpu/libc.a(lib_a-lseekr.o)
                              /home/jon/gcc-arm-none-eabi-5_2-2015q4/arm-none-eabi/lib/armv7e-m/fpu/libc.a(lib_a-stdio.o) (_lseek_r)
/home/jon/gcc-arm-none-eabi-5_2-2015q4/arm-none-eabi/lib/armv7e-m/fpu/libc.a(lib_a-makebuf.o)
                              /home/jon/gcc-arm-none-eabi-5_2-2015q4/arm-none-eabi/lib/armv7e-m/fpu/libc.a(lib_a-wsetup.o) (__smakebuf_r)
/home/jon/gcc-arm-none-eabi-5_2-2015q4/arm-none-eabi/lib/armv7e-m/fpu/libc.a(lib_a-readr.o)
                              /home/jon/gcc-arm-none-eabi-5_2-2015q4/arm-none-eabi/lib/armv7e-m/fpu/libc.a(lib_a-stdio.o) (_read_r)
/home/jon/gcc-arm-none-eabi-5_2-2015q4/arm-none-eabi/lib/armv7e-m/fpu/libc.a(lib_a-reent.o)
                              /home/jon/gcc-arm-none-eabi-5_2-2015q4/arm-none-eabi/lib/armv7e-m/fpu/libc.a(lib_a-sbrkr.o) (errno)
/home/jon/gcc-arm-none-eabi-5_2-2015q4/arm-none-eabi/lib/armv7e-m/fpu/libc.a(lib_a-fstatr.o)
                              /home/jon/gcc-arm-none-eabi-5_2-2015q4/arm-none-eabi/lib/armv7e-m/fpu/libc.a(lib_a-makebuf.o) (_fstat_r)
/home/jon/gcc-arm-none-eabi-5_2-2015q4/arm-none-eabi/lib/armv7e-m/fpu/libc.a(lib_a-isattyr.o)
                              /home/jon/gcc-arm-none-eabi-5_2-2015q4/arm-none-eabi/lib/armv7e-m/fpu/libc.a(lib_a-makebuf.o) (_isatty_r)
/home/jon/gcc-arm-none-eabi-5_2-2015q4/arm-none-eabi/lib/armv7e-m/fpu/libm.a(lib_a-sf_sin.o)
                              /home/jon/dev_src/SEU-Detect-Correct/build/main.o (sinf)
/home/jon/gcc-arm-none-eabi-5_2-2015q4/arm-none-eabi/lib/armv7e-m/fpu/libm.a(lib_a-ef_rem_pio2.o)
                              /home/jon/gcc-arm-none-eabi-5_2-2015q4/arm-none-eabi/lib/armv7e-m/fpu/libm.a(lib_a-sf_sin.o) (__ieee754_rem_pio2f)
/home/jon/gcc-arm-none-eabi-5_2-2015q4/arm-none-eabi/lib/armv7e-m/fpu/libm.a(lib_a-kf_cos.o)
                              /home/jon/gcc-arm-none-eabi-5_2-2015q4/arm-none-eabi/lib/armv7e-m/fpu/libm.a(lib_a-sf_sin.o) (__kernel_cosf)
/home/jon/gcc-arm-none-eabi-5_2-2015q4/arm-none-eabi/lib/armv7e-m/fpu/libm.a(lib_a-kf_rem_pio2.o)
                              /home/jon/gcc-arm-none-eabi-5_2-2015q4/arm-none-eabi/lib/armv7e-m/fpu/libm.a(lib_a-ef_rem_pio2.o) (__kernel_rem_pio2f)
/home/jon/gcc-arm-none-eabi-5_2-2015q4/arm-none-eabi/lib/armv7e-m/fpu/libm.a(lib_a-kf_sin.o)
                              /home/jon/gcc-arm-none-eabi-5_2-2015q4/arm-none-eabi/lib/armv7e-m/fpu/libm.a(lib_a-sf_sin.o) (__kernel_sinf)
/home/jon/gcc-arm-none-eabi-5_2-2015q4/arm-none-eabi/lib/armv7e-m/fpu/libm.a(lib_a-sf_fabs.o)
                              /home/jon/gcc-arm-none-eabi-5_2-2015q4/arm-none-eabi/lib/armv7e-m/fpu/libm.a(lib_a-ef_rem_pio2.o) (fabsf)
/home/jon/gcc-arm-none-eabi-5_2-2015q4/arm-none-eabi/lib/armv7e-m/fpu/libm.a(lib_a-sf_floor.o)
                              /home/jon/gcc-arm-none-eabi-5_2-2015q4/arm-none-eabi/lib/armv7e-m/fpu/libm.a(lib_a-kf_rem_pio2.o) (floorf)
/home/jon/gcc-arm-none-eabi-5_2-2015q4/arm-none-eabi/lib/armv7e-m/fpu/libm.a(lib_a-sf_scalbn.o)
                              /home/jon/gcc-arm-none-eabi-5_2-2015q4/arm-none-eabi/lib/armv7e-m/fpu/libm.a(lib_a-kf_rem_pio2.o) (scalbnf)
/home/jon/gcc-arm-none-eabi-5_2-2015q4/arm-none-eabi/lib/armv7e-m/fpu/libm.a(lib_a-sf_copysign.o)
                              /home/jon/gcc-arm-none-eabi-5_2-2015q4/arm-none-eabi/lib/armv7e-m/fpu/libm.a(lib_a-sf_scalbn.o) (copysignf)

Allocating common symbols
Common symbol       size              file

errno               0x4               /home/jon/gcc-arm-none-eabi-5_2-2015q4/arm-none-eabi/lib/armv7e-m/fpu/libc.a(lib_a-reent.o)
xQueueRegistry      0x40              /home/jon/dev_src/SEU-Detect-Correct/build/queue.o

Memory Configuration

Name             Origin             Length             Attributes
sram             0x20000000         0x00030000         w !xr
CCMRAM           0x60000000         0x00000000         xrw
flash            0x08000000         0x00100000         xrw
*default*        0x00000000         0xffffffff

Linker script and memory map

LOAD /home/jon/dev_src/SEU-Detect-Correct/build/system_stm32f4xx.o
LOAD /home/jon/dev_src/SEU-Detect-Correct/build/main.o
LOAD /home/jon/dev_src/SEU-Detect-Correct/build/syscalls.o
LOAD /home/jon/dev_src/SEU-Detect-Correct/build/port.o
LOAD /home/jon/dev_src/SEU-Detect-Correct/build/list.o
LOAD /home/jon/dev_src/SEU-Detect-Correct/build/queue.o
LOAD /home/jon/dev_src/SEU-Detect-Correct/build/tasks.o
LOAD /home/jon/dev_src/SEU-Detect-Correct/build/event_groups.o
LOAD /home/jon/dev_src/SEU-Detect-Correct/build/timers.o
LOAD /home/jon/dev_src/SEU-Detect-Correct/build/heap_4.o
LOAD /home/jon/dev_src/SEU-Detect-Correct/build/stm32f4xx_syscfg.o
LOAD /home/jon/dev_src/SEU-Detect-Correct/build/misc.o
LOAD /home/jon/dev_src/SEU-Detect-Correct/build/stm32f4xx_adc.o
LOAD /home/jon/dev_src/SEU-Detect-Correct/build/stm32f4xx_dac.o
LOAD /home/jon/dev_src/SEU-Detect-Correct/build/stm32f4xx_dma.o
LOAD /home/jon/dev_src/SEU-Detect-Correct/build/stm32f4xx_exti.o
LOAD /home/jon/dev_src/SEU-Detect-Correct/build/stm32f4xx_flash.o
LOAD /home/jon/dev_src/SEU-Detect-Correct/build/stm32f4xx_gpio.o
LOAD /home/jon/dev_src/SEU-Detect-Correct/build/stm32f4xx_i2c.o
LOAD /home/jon/dev_src/SEU-Detect-Correct/build/stm32f4xx_rcc.o
LOAD /home/jon/dev_src/SEU-Detect-Correct/build/stm32f4xx_spi.o
LOAD /home/jon/dev_src/SEU-Detect-Correct/build/stm32f4xx_tim.o
LOAD /home/jon/dev_src/SEU-Detect-Correct/build/stm32f4xx_usart.o
LOAD /home/jon/dev_src/SEU-Detect-Correct/build/stm32f4xx_rng.o
LOAD /home/jon/dev_src/SEU-Detect-Correct/build/alpha_to.o
LOAD /home/jon/dev_src/SEU-Detect-Correct/build/index_of.o
LOAD /home/jon/dev_src/SEU-Detect-Correct/build/genpoly.o
LOAD build/trace_functions.o
LOAD /home/jon/dev_src/SEU-Detect-Correct/build/startup_stm32f4xx.o
LOAD /home/jon/gcc-arm-none-eabi-5_2-2015q4/arm-none-eabi/lib/armv7e-m/fpu/libc.a
LOAD /home/jon/gcc-arm-none-eabi-5_2-2015q4/arm-none-eabi/lib/armv7e-m/fpu/libm.a
START GROUP
LOAD /home/jon/gcc-arm-none-eabi-5_2-2015q4/bin/../lib/gcc/arm-none-eabi/5.2.1/libgcc.a
LOAD /home/jon/gcc-arm-none-eabi-5_2-2015q4/bin/../lib/gcc/arm-none-eabi/5.2.1/../../../../arm-none-eabi/lib/libc.a
END GROUP

.text           0x08000000    0x22340
 FILL mask 0x00000000
                0x08000000                _text = .
                [!provide]                PROVIDE (stext, .)
                0x08000000                work_area = .
                0x08004000                . = (work_area + 0x4000)
 *fill*         0x08000000     0x4000 00000000
                0x08004000                block_base = .
                0x08004000                block_count = .
                0x08004000        0x4 LONG 0x7 ((block_end - block_base) / 0x3400)
 *(.text.section1_profile_func_enter)
 *fill*         0x08004004       0x1c 00000000
 .text.section1_profile_func_enter
                0x08004020     0x13e0 build/trace_functions.o
 *(.text.__kernel_rem_pio2f)
 .text.__kernel_rem_pio2f
                0x08005400      0x628 /home/jon/gcc-arm-none-eabi-5_2-2015q4/arm-none-eabi/lib/armv7e-m/fpu/libm.a(lib_a-kf_rem_pio2.o)
                0x08005400                __kernel_rem_pio2f
                0x08005a2a                . = (. + 0x2)
 *fill*         0x08005a28        0x2 00000000
 *(.text._malloc_r)
 *fill*         0x08005a2a        0x2 00000000
 .text._malloc_r
                0x08005a2c      0x570 /home/jon/gcc-arm-none-eabi-5_2-2015q4/arm-none-eabi/lib/armv7e-m/fpu/libc.a(lib_a-mallocr.o)
                0x08005a2c                _malloc_r
 *(.text._realloc_r)
 .text._realloc_r
                0x08005f9c      0x3e0 /home/jon/gcc-arm-none-eabi-5_2-2015q4/arm-none-eabi/lib/armv7e-m/fpu/libc.a(lib_a-reallocr.o)
                0x08005f9c                _realloc_r
                0x0800637e                . = (. + 0x2)
 *fill*         0x0800637c        0x2 00000000
 *(.text.__sfvwrite_r)
 *fill*         0x0800637e        0x2 00000000
 .text.__sfvwrite_r
                0x08006380      0x300 /home/jon/gcc-arm-none-eabi-5_2-2015q4/arm-none-eabi/lib/armv7e-m/fpu/libc.a(lib_a-fvwrite.o)
                0x08006380                __sfvwrite_r
 *(.text.__ieee754_rem_pio2f)
 .text.__ieee754_rem_pio2f
                0x08006680      0x298 /home/jon/gcc-arm-none-eabi-5_2-2015q4/arm-none-eabi/lib/armv7e-m/fpu/libm.a(lib_a-ef_rem_pio2.o)
                0x08006680                __ieee754_rem_pio2f
 *(.text.xQueueGenericReceive)
 *fill*         0x08006918        0x8 00000000
 .text.xQueueGenericReceive
                0x08006920      0x264 /home/jon/dev_src/SEU-Detect-Correct/build/queue.o
                0x08006920                xQueueGenericReceive
 *(.text.xQueueGenericSend)
 *fill*         0x08006b84       0x1c 00000000
 .text.xQueueGenericSend
                0x08006ba0      0x258 /home/jon/dev_src/SEU-Detect-Correct/build/queue.o
                0x08006ba0                xQueueGenericSend
 *(.text.xEventGroupWaitBits)
 *fill*         0x08006df8        0x8 00000000
 .text.xEventGroupWaitBits
                0x08006e00      0x200 /home/jon/dev_src/SEU-Detect-Correct/build/event_groups.o
                0x08006e00                xEventGroupWaitBits
 *(.text.xTaskGenericCreate)
 .text.xTaskGenericCreate
                0x08007000      0x1fc /home/jon/dev_src/SEU-Detect-Correct/build/tasks.o
                0x08007000                xTaskGenericCreate
 *(.text.pvPortMalloc)
 *fill*         0x080071fc        0x4 00000000
 .text.pvPortMalloc
                0x08007200      0x1e8 /home/jon/dev_src/SEU-Detect-Correct/build/heap_4.o
                0x08007200                pvPortMalloc
 *(.text.ADC_AnalogWatchdogCmd)
 *fill*         0x080073e8       0x18 00000000
 .text.ADC_AnalogWatchdogCmd
                0x08007400       0x50 /home/jon/dev_src/SEU-Detect-Correct/build/stm32f4xx_adc.o
                0x08007400                ADC_AnalogWatchdogCmd
 *(.text.memchr)
                0x0800746c                . = (. + 0x1c)
 *fill*         0x08007450       0x1c 00000000
 *(.text.xTaskNotifyFromISR)
 *fill*         0x0800746c       0x14 00000000
 .text.xTaskNotifyFromISR
                0x08007480      0x1e8 /home/jon/dev_src/SEU-Detect-Correct/build/tasks.o
                0x08007480                xTaskNotifyFromISR
 *(.text.TIM_DeInit)
 *fill*         0x08007668       0x18 00000000
 .text.TIM_DeInit
                0x08007680      0x1d8 /home/jon/dev_src/SEU-Detect-Correct/build/stm32f4xx_tim.o
                0x08007680                TIM_DeInit
 *(.text._free_r)
 .text._free_r  0x08007858      0x1d0 /home/jon/gcc-arm-none-eabi-5_2-2015q4/arm-none-eabi/lib/armv7e-m/fpu/libc.a(lib_a-freer.o)
                0x08007858                _free_r
 *(.text.I2S_Init)
 *fill*         0x08007a28       0x18 00000000
 .text.I2S_Init
                0x08007a40      0x1cc /home/jon/dev_src/SEU-Detect-Correct/build/stm32f4xx_spi.o
                0x08007a40                I2S_Init
 *(.text.xTaskIncrementTick)
 *fill*         0x08007c0c       0x14 00000000
 .text.xTaskIncrementTick
                0x08007c20      0x1c0 /home/jon/dev_src/SEU-Detect-Correct/build/tasks.o
                0x08007c20                xTaskIncrementTick
 *(.text.DMA_DeInit)
 .text.DMA_DeInit
                0x08007de0      0x1bc /home/jon/dev_src/SEU-Detect-Correct/build/stm32f4xx_dma.o
                0x08007de0                DMA_DeInit
 *(.text.xEventGroupSync)
 *fill*         0x08007f9c        0x4 00000000
 .text.xEventGroupSync
                0x08007fa0      0x1b0 /home/jon/dev_src/SEU-Detect-Correct/build/event_groups.o
                0x08007fa0                xEventGroupSync
 *(.text.ADC_RegularChannelConfig)
 *fill*         0x08008150       0x10 00000000
 .text.ADC_RegularChannelConfig
                0x08008160      0x1ac /home/jon/dev_src/SEU-Detect-Correct/build/stm32f4xx_adc.o
                0x08008160                ADC_RegularChannelConfig
 *(.text.xQueueGenericSendFromISR)
 *fill*         0x0800830c       0x14 00000000
 .text.xQueueGenericSendFromISR
                0x08008320      0x1a4 /home/jon/dev_src/SEU-Detect-Correct/build/queue.o
                0x08008320                xQueueGenericSendFromISR
 *(.text.I2C_Init)
 *fill*         0x080084c4       0x1c 00000000
 .text.I2C_Init
                0x080084e0      0x1a0 /home/jon/dev_src/SEU-Detect-Correct/build/stm32f4xx_i2c.o
                0x080084e0                I2C_Init
 *(.text.USART_Init)
 .text.USART_Init
                0x08008680      0x194 /home/jon/dev_src/SEU-Detect-Correct/build/stm32f4xx_usart.o
                0x08008680                USART_Init
 *(.text.vTaskPrioritySet)
 *fill*         0x08008814        0xc 00000000
 .text.vTaskPrioritySet
                0x08008820      0x18c /home/jon/dev_src/SEU-Detect-Correct/build/tasks.o
                0x08008820                vTaskPrioritySet
 *(.text.vTaskNotifyGiveFromISR)
 *fill*         0x080089ac       0x14 00000000
 .text.vTaskNotifyGiveFromISR
                0x080089c0      0x188 /home/jon/dev_src/SEU-Detect-Correct/build/tasks.o
                0x080089c0                vTaskNotifyGiveFromISR
 *(.text.vTaskDelayUntil)
 *fill*         0x08008b48       0x18 00000000
 .text.vTaskDelayUntil
                0x08008b60      0x178 /home/jon/dev_src/SEU-Detect-Correct/build/tasks.o
                0x08008b60                vTaskDelayUntil
 *(.text.xTaskNotify)
 *fill*         0x08008cd8        0x8 00000000
 .text.xTaskNotify
                0x08008ce0      0x178 /home/jon/dev_src/SEU-Detect-Correct/build/tasks.o
                0x08008ce0                xTaskNotify
 *(.text.RCC_GetClocksFreq)
 *fill*         0x08008e58        0x8 00000000
 .text.RCC_GetClocksFreq
                0x08008e60      0x16c /home/jon/dev_src/SEU-Detect-Correct/build/stm32f4xx_rcc.o
                0x08008e60                RCC_GetClocksFreq
 *(.text.prvProcessReceivedCommands)
 *fill*         0x08008fcc       0x14 00000000
 .text.prvProcessReceivedCommands
                0x08008fe0      0x168 /home/jon/dev_src/SEU-Detect-Correct/build/timers.o
 *(.text.xQueueReceiveFromISR)
 *fill*         0x08009148       0x18 00000000
 .text.xQueueReceiveFromISR
                0x08009160      0x160 /home/jon/dev_src/SEU-Detect-Correct/build/queue.o
                0x08009160                xQueueReceiveFromISR
 *(.text.xEventGroupSetBits)
 .text.xEventGroupSetBits
                0x080092c0      0x15c /home/jon/dev_src/SEU-Detect-Correct/build/event_groups.o
                0x080092c0                xEventGroupSetBits
 *(.text.xTaskResumeAll)
 *fill*         0x0800941c        0x4 00000000
 .text.xTaskResumeAll
                0x08009420      0x15c /home/jon/dev_src/SEU-Detect-Correct/build/tasks.o
                0x08009420                xTaskResumeAll
 *(.text.xQueuePeekFromISR)
 *fill*         0x0800957c        0x4 00000000
 .text.xQueuePeekFromISR
                0x08009580      0x158 /home/jon/dev_src/SEU-Detect-Correct/build/queue.o
                0x08009580                xQueuePeekFromISR
 *(.text.vTaskSwitchContext)
 *fill*         0x080096d8        0x8 00000000
 .text.vTaskSwitchContext
                0x080096e0      0x14c /home/jon/dev_src/SEU-Detect-Correct/build/tasks.o
                0x080096e0                vTaskSwitchContext
 *(.text.xQueueGiveFromISR)
 *fill*         0x0800982c       0x14 00000000
 .text.xQueueGiveFromISR
                0x08009840      0x14c /home/jon/dev_src/SEU-Detect-Correct/build/queue.o
                0x08009840                xQueueGiveFromISR
 *(.text.__sflush_r)
 .text.__sflush_r
                0x0800998c      0x148 /home/jon/gcc-arm-none-eabi-5_2-2015q4/arm-none-eabi/lib/armv7e-m/fpu/libc.a(lib_a-fflush.o)
                0x0800998c                __sflush_r
 *(.text.vTaskSuspend)
 *fill*         0x08009ad4        0xc 00000000
 .text.vTaskSuspend
                0x08009ae0      0x144 /home/jon/dev_src/SEU-Detect-Correct/build/tasks.o
                0x08009ae0                vTaskSuspend
 *(.text.xTaskResumeFromISR)
 *fill*         0x08009c24       0x1c 00000000
 .text.xTaskResumeFromISR
                0x08009c40      0x144 /home/jon/dev_src/SEU-Detect-Correct/build/tasks.o
                0x08009c40                xTaskResumeFromISR
 *(.text.SetSysClock)
 *fill*         0x08009d84       0x1c 00000000
 .text.SetSysClock
                0x08009da0      0x140 /home/jon/dev_src/SEU-Detect-Correct/build/system_stm32f4xx.o
 *(.text.GPIO_DeInit)
 .text.GPIO_DeInit
                0x08009ee0      0x13c /home/jon/dev_src/SEU-Detect-Correct/build/stm32f4xx_gpio.o
                0x08009ee0                GPIO_DeInit
 *(.text.ADC_InjectedChannelConfig)
 *fill*         0x0800a01c        0x4 00000000
 .text.ADC_InjectedChannelConfig
                0x0800a020      0x138 /home/jon/dev_src/SEU-Detect-Correct/build/stm32f4xx_adc.o
                0x0800a020                ADC_InjectedChannelConfig
 *(.text.vTaskDelete)
 *fill*         0x0800a158        0x8 00000000
 .text.vTaskDelete
                0x0800a160      0x138 /home/jon/dev_src/SEU-Detect-Correct/build/tasks.o
                0x0800a160                vTaskDelete
 *(.text.GPIO_Init)
 *fill*         0x0800a298        0x8 00000000
 .text.GPIO_Init
                0x0800a2a0      0x134 /home/jon/dev_src/SEU-Detect-Correct/build/stm32f4xx_gpio.o
                0x0800a2a0                GPIO_Init
 *(.text.memcpy)
 *(.text.prvListTaskWithinSingleList)
 *fill*         0x0800a3d4        0xc 00000000
 .text.prvListTaskWithinSingleList
                0x0800a3e0      0x134 /home/jon/dev_src/SEU-Detect-Correct/build/tasks.o
 *(.text.TIM_OC2Init)
 *fill*         0x0800a514        0xc 00000000
 .text.TIM_OC2Init
                0x0800a520      0x128 /home/jon/dev_src/SEU-Detect-Correct/build/stm32f4xx_tim.o
                0x0800a520                TIM_OC2Init
 *(.text.xTaskNotifyWait)
 *fill*         0x0800a648       0x18 00000000
 .text.xTaskNotifyWait
                0x0800a660      0x128 /home/jon/dev_src/SEU-Detect-Correct/build/tasks.o
                0x0800a660                xTaskNotifyWait
 *(.text.TIM_OC3Init)
 *fill*         0x0800a788       0x18 00000000
 .text.TIM_OC3Init
                0x0800a7a0      0x124 /home/jon/dev_src/SEU-Detect-Correct/build/stm32f4xx_tim.o
                0x0800a7a0                TIM_OC3Init
 *(.text.ADC_GetMultiModeConversionValue)
 *fill*         0x0800a8c4       0x1c 00000000
 .text.ADC_GetMultiModeConversionValue
                0x0800a8e0       0x2c /home/jon/dev_src/SEU-Detect-Correct/build/stm32f4xx_adc.o
                0x0800a8e0                ADC_GetMultiModeConversionValue
                0x0800a928                . = (. + 0x1c)
 *fill*         0x0800a90c       0x1c 00000000
 *(.text.xTaskPriorityDisinherit)
 *fill*         0x0800a928       0x18 00000000
 .text.xTaskPriorityDisinherit
                0x0800a940      0x118 /home/jon/dev_src/SEU-Detect-Correct/build/tasks.o
                0x0800a940                xTaskPriorityDisinherit
 *(.text.xTaskRemoveFromUnorderedEventList)
 *fill*         0x0800aa58        0x8 00000000
 .text.xTaskRemoveFromUnorderedEventList
                0x0800aa60      0x114 /home/jon/dev_src/SEU-Detect-Correct/build/tasks.o
                0x0800aa60                xTaskRemoveFromUnorderedEventList
 *(.text.SystemCoreClockUpdate)
 *fill*         0x0800ab74        0xc 00000000
 .text.SystemCoreClockUpdate
                0x0800ab80      0x110 /home/jon/dev_src/SEU-Detect-Correct/build/system_stm32f4xx.o
                0x0800ab80                SystemCoreClockUpdate
 *(.text.uxTaskGetSystemState)
 *fill*         0x0800ac90       0x10 00000000
 .text.uxTaskGetSystemState
                0x0800aca0      0x110 /home/jon/dev_src/SEU-Detect-Correct/build/tasks.o
                0x0800aca0                uxTaskGetSystemState
 *(.text.vTaskPlaceOnUnorderedEventList)
 *fill*         0x0800adb0       0x10 00000000
 .text.vTaskPlaceOnUnorderedEventList
                0x0800adc0      0x110 /home/jon/dev_src/SEU-Detect-Correct/build/tasks.o
                0x0800adc0                vTaskPlaceOnUnorderedEventList
 *(.text.TIM_OC1Init)
 *fill*         0x0800aed0       0x10 00000000
 .text.TIM_OC1Init
                0x0800aee0      0x10c /home/jon/dev_src/SEU-Detect-Correct/build/stm32f4xx_tim.o
                0x0800aee0                TIM_OC1Init
 *(.text.vTaskPriorityInherit)
 *fill*         0x0800afec       0x14 00000000
 .text.vTaskPriorityInherit
                0x0800b000      0x108 /home/jon/dev_src/SEU-Detect-Correct/build/tasks.o
                0x0800b000                vTaskPriorityInherit
 *(.text.__kernel_cosf)
 .text.__kernel_cosf
                0x0800b108      0x104 /home/jon/gcc-arm-none-eabi-5_2-2015q4/arm-none-eabi/lib/armv7e-m/fpu/libm.a(lib_a-kf_cos.o)
                0x0800b108                __kernel_cosf
 *(.text.ulTaskNotifyTake)
 *fill*         0x0800b20c       0x14 00000000
 .text.ulTaskNotifyTake
                0x0800b220      0x104 /home/jon/dev_src/SEU-Detect-Correct/build/tasks.o
                0x0800b220                ulTaskNotifyTake
 *(.text.xQueueGenericReset)
 *fill*         0x0800b324       0x1c 00000000
 .text.xQueueGenericReset
                0x0800b340      0x104 /home/jon/dev_src/SEU-Detect-Correct/build/queue.o
                0x0800b340                xQueueGenericReset
 *(.text.xTaskCheckForTimeOut)
 *fill*         0x0800b444       0x1c 00000000
 .text.xTaskCheckForTimeOut
                0x0800b460      0x104 /home/jon/dev_src/SEU-Detect-Correct/build/tasks.o
                0x0800b460                xTaskCheckForTimeOut
 *(.text.xQueueGenericCreate)
 *fill*         0x0800b564       0x1c 00000000
 .text.xQueueGenericCreate
                0x0800b580      0x100 /home/jon/dev_src/SEU-Detect-Correct/build/queue.o
                0x0800b580                xQueueGenericCreate
 *(.text.EXTI_Init)
 .text.EXTI_Init
                0x0800b680       0xfc /home/jon/dev_src/SEU-Detect-Correct/build/stm32f4xx_exti.o
                0x0800b680                EXTI_Init
 *(.text.vPortFree)
 *fill*         0x0800b77c        0x4 00000000
 .text.vPortFree
                0x0800b780       0xf8 /home/jon/dev_src/SEU-Detect-Correct/build/heap_4.o
                0x0800b780                vPortFree
 *(.text.xTaskRemoveFromEventList)
 *fill*         0x0800b878        0x8 00000000
 .text.xTaskRemoveFromEventList
                0x0800b880       0xf8 /home/jon/dev_src/SEU-Detect-Correct/build/tasks.o
                0x0800b880                xTaskRemoveFromEventList
 *(.text.prvCopyDataToQueue)
 *fill*         0x0800b978        0x8 00000000
 .text.prvCopyDataToQueue
                0x0800b980       0xf4 /home/jon/dev_src/SEU-Detect-Correct/build/queue.o
 *(.text.prvSwitchTimerLists)
 *fill*         0x0800ba74        0xc 00000000
 .text.prvSwitchTimerLists
                0x0800ba80       0xf4 /home/jon/dev_src/SEU-Detect-Correct/build/timers.o
 *(.text.__sinit.part.1)
 .text.__sinit.part.1
                0x0800bb74       0xf0 /home/jon/gcc-arm-none-eabi-5_2-2015q4/arm-none-eabi/lib/armv7e-m/fpu/libc.a(lib_a-findfp.o)
 *(.text.TIM_TimeBaseInit)
 *fill*         0x0800bc64       0x1c 00000000
 .text.TIM_TimeBaseInit
                0x0800bc80       0xec /home/jon/dev_src/SEU-Detect-Correct/build/stm32f4xx_tim.o
                0x0800bc80                TIM_TimeBaseInit
 *(.text.USART_DeInit)
 *fill*         0x0800bd6c       0x14 00000000
 .text.USART_DeInit
                0x0800bd80       0xec /home/jon/dev_src/SEU-Detect-Correct/build/stm32f4xx_usart.o
                0x0800bd80                USART_DeInit
 *(.text.vTaskResume)
 *fill*         0x0800be6c       0x14 00000000
 .text.vTaskResume
                0x0800be80       0xec /home/jon/dev_src/SEU-Detect-Correct/build/tasks.o
                0x0800be80                vTaskResume
 *(.text.xPortStartScheduler)
 *fill*         0x0800bf6c       0x14 00000000
 .text.xPortStartScheduler
                0x0800bf80       0xec /home/jon/dev_src/SEU-Detect-Correct/build/port.o
                0x0800bf80                xPortStartScheduler
 *(.text.TIM_OC4Init)
 *fill*         0x0800c06c       0x14 00000000
 .text.TIM_OC4Init
                0x0800c080       0xe4 /home/jon/dev_src/SEU-Detect-Correct/build/stm32f4xx_tim.o
                0x0800c080                TIM_OC4Init
 *(.text.__smakebuf_r)
 .text.__smakebuf_r
                0x0800c164       0xe0 /home/jon/gcc-arm-none-eabi-5_2-2015q4/arm-none-eabi/lib/armv7e-m/fpu/libc.a(lib_a-makebuf.o)
                0x0800c164                __smakebuf_r
 *(.text.FLASH_EraseSector)
 *fill*         0x0800c244       0x1c 00000000
 .text.FLASH_EraseSector
                0x0800c260       0xdc /home/jon/dev_src/SEU-Detect-Correct/build/stm32f4xx_flash.o
                0x0800c260                FLASH_EraseSector
 *(.text.prvHeapInit)
 *fill*         0x0800c33c        0x4 00000000
 .text.prvHeapInit
                0x0800c340       0xdc /home/jon/dev_src/SEU-Detect-Correct/build/heap_4.o
 *(.text.strlen)
 *(.text.NVIC_Init)
 *fill*         0x0800c41c        0x4 00000000
 .text.NVIC_Init
                0x0800c420       0xd8 /home/jon/dev_src/SEU-Detect-Correct/build/misc.o
                0x0800c420                NVIC_Init
 *(.text.vTaskDelay)
 *fill*         0x0800c4f8        0x8 00000000
 .text.vTaskDelay
                0x0800c500       0xd8 /home/jon/dev_src/SEU-Detect-Correct/build/tasks.o
                0x0800c500                vTaskDelay
 *(.text.xQueueCreateCountingSemaphore)
 *fill*         0x0800c5d8        0x8 00000000
 .text.xQueueCreateCountingSemaphore
                0x0800c5e0       0xd8 /home/jon/dev_src/SEU-Detect-Correct/build/queue.o
                0x0800c5e0                xQueueCreateCountingSemaphore
 *(.text.TIM_PWMIConfig)
 *fill*         0x0800c6b8        0x8 00000000
 .text.TIM_PWMIConfig
                0x0800c6c0       0xd4 /home/jon/dev_src/SEU-Detect-Correct/build/stm32f4xx_tim.o
                0x0800c6c0                TIM_PWMIConfig
 *(.text.vTaskStartScheduler)
 *fill*         0x0800c794        0xc 00000000
 .text.vTaskStartScheduler
                0x0800c7a0       0xd4 /home/jon/dev_src/SEU-Detect-Correct/build/tasks.o
                0x0800c7a0                vTaskStartScheduler
 *(.text.xQueueCreateMutex)
 *fill*         0x0800c874        0xc 00000000
 .text.xQueueCreateMutex
                0x0800c880       0xd4 /home/jon/dev_src/SEU-Detect-Correct/build/queue.o
                0x0800c880                xQueueCreateMutex
 *(.text.scalbnf)
 .text.scalbnf  0x0800c954       0xd0 /home/jon/gcc-arm-none-eabi-5_2-2015q4/arm-none-eabi/lib/armv7e-m/fpu/libm.a(lib_a-sf_scalbn.o)
                0x0800c954                scalbnf
 *(.text.USART_GetITStatus)
 *fill*         0x0800ca24       0x1c 00000000
 .text.USART_GetITStatus
                0x0800ca40       0xd0 /home/jon/dev_src/SEU-Detect-Correct/build/stm32f4xx_usart.o
                0x0800ca40                USART_GetITStatus
 *(.text.vTaskPlaceOnEventList)
 *fill*         0x0800cb10       0x10 00000000
 .text.vTaskPlaceOnEventList
                0x0800cb20       0xd0 /home/jon/dev_src/SEU-Detect-Correct/build/tasks.o
                0x0800cb20                vTaskPlaceOnEventList
 *(.text.DMA_GetITStatus)
 *fill*         0x0800cbf0       0x10 00000000
 .text.DMA_GetITStatus
                0x0800cc00       0xc8 /home/jon/dev_src/SEU-Detect-Correct/build/stm32f4xx_dma.o
                0x0800cc00                DMA_GetITStatus
 *(.text.memmove)
 .text.memmove  0x0800ccc8       0xc8 /home/jon/gcc-arm-none-eabi-5_2-2015q4/arm-none-eabi/lib/armv7e-m/fpu/libc.a(lib_a-memmove.o)
                0x0800ccc8                memmove
                0x0800cd92                . = (. + 0x2)
 *fill*         0x0800cd90        0x2 00000000
 *(.text.prvInsertBlockIntoFreeList)
 *fill*         0x0800cd92        0xe 00000000
 .text.prvInsertBlockIntoFreeList
                0x0800cda0       0xc8 /home/jon/dev_src/SEU-Detect-Correct/build/heap_4.o
 *(.text.TIM_SelectOCxM)
 *fill*         0x0800ce68       0x18 00000000
 .text.TIM_SelectOCxM
                0x0800ce80       0xc8 /home/jon/dev_src/SEU-Detect-Correct/build/stm32f4xx_tim.o
                0x0800ce80                TIM_SelectOCxM
 *(.text.DMA_Init)
 *fill*         0x0800cf48       0x18 00000000
 .text.DMA_Init
                0x0800cf60       0xc4 /home/jon/dev_src/SEU-Detect-Correct/build/stm32f4xx_dma.o
                0x0800cf60                DMA_Init
 *(.text.prvInitialiseTCBVariables)
 *fill*         0x0800d024       0x1c 00000000
 .text.prvInitialiseTCBVariables
                0x0800d040       0xc4 /home/jon/dev_src/SEU-Detect-Correct/build/tasks.o
 *(.text.__swsetup_r)
 .text.__swsetup_r
                0x0800d104       0xc4 /home/jon/gcc-arm-none-eabi-5_2-2015q4/arm-none-eabi/lib/armv7e-m/fpu/libc.a(lib_a-wsetup.o)
                0x0800d104                __swsetup_r
 *(.text.TIM_ICInit)
 *fill*         0x0800d1c8       0x18 00000000
 .text.TIM_ICInit
                0x0800d1e0       0xc4 /home/jon/dev_src/SEU-Detect-Correct/build/stm32f4xx_tim.o
                0x0800d1e0                TIM_ICInit
 *(.text.ADC_Init)
 *fill*         0x0800d2a4       0x1c 00000000
 .text.ADC_Init
                0x0800d2c0       0xc0 /home/jon/dev_src/SEU-Detect-Correct/build/stm32f4xx_adc.o
                0x0800d2c0                ADC_Init
 *(.text.prvCheckForValidListAndQueue)
 .text.prvCheckForValidListAndQueue
                0x0800d380       0xc0 /home/jon/dev_src/SEU-Detect-Correct/build/timers.o
 *(.text.FLASH_EraseAllSectors)
 .text.FLASH_EraseAllSectors
                0x0800d440       0xbc /home/jon/dev_src/SEU-Detect-Correct/build/stm32f4xx_flash.o
                0x0800d440                FLASH_EraseAllSectors
 *(.text.vPortValidateInterruptPriority)
 *fill*         0x0800d4fc        0x4 00000000
 .text.vPortValidateInterruptPriority
                0x0800d500       0xbc /home/jon/dev_src/SEU-Detect-Correct/build/port.o
                0x0800d500                vPortValidateInterruptPriority
 *(.text.I2S_FullDuplexConfig)
 *fill*         0x0800d5bc        0x4 00000000
 .text.I2S_FullDuplexConfig
                0x0800d5c0       0xb4 /home/jon/dev_src/SEU-Detect-Correct/build/stm32f4xx_spi.o
                0x0800d5c0                I2S_FullDuplexConfig
 *(.text.prvUnlockQueue)
 *fill*         0x0800d674        0xc 00000000
 .text.prvUnlockQueue
                0x0800d680       0xb4 /home/jon/dev_src/SEU-Detect-Correct/build/queue.o
 *(.text.TI4_Config)
 *fill*         0x0800d734        0xc 00000000
 .text.TI4_Config
                0x0800d740       0xb4 /home/jon/dev_src/SEU-Detect-Correct/build/stm32f4xx_tim.o
 *(.text.vTaskPlaceOnEventListRestricted)
 *fill*         0x0800d7f4        0xc 00000000
 .text.vTaskPlaceOnEventListRestricted
                0x0800d800       0xb4 /home/jon/dev_src/SEU-Detect-Correct/build/tasks.o
                0x0800d800                vTaskPlaceOnEventListRestricted
 *(.text.xEventGroupClearBits)
 *fill*         0x0800d8b4        0xc 00000000
 .text.xEventGroupClearBits
                0x0800d8c0       0xb4 /home/jon/dev_src/SEU-Detect-Correct/build/event_groups.o
                0x0800d8c0                xEventGroupClearBits
 *(.text.prvProcessExpiredTimer)
 *fill*         0x0800d974        0xc 00000000
 .text.prvProcessExpiredTimer
                0x0800d980       0xb0 /home/jon/dev_src/SEU-Detect-Correct/build/timers.o
 *(.text.TI2_Config)
 *fill*         0x0800da30       0x10 00000000
 .text.TI2_Config
                0x0800da40       0xb0 /home/jon/dev_src/SEU-Detect-Correct/build/stm32f4xx_tim.o
 *(.text.TIM_EncoderInterfaceConfig)
 *fill*         0x0800daf0       0x10 00000000
 .text.TIM_EncoderInterfaceConfig
                0x0800db00       0xb0 /home/jon/dev_src/SEU-Detect-Correct/build/stm32f4xx_tim.o
                0x0800db00                TIM_EncoderInterfaceConfig
 *(.text.xTimerCreate)
 *fill*         0x0800dbb0       0x10 00000000
 .text.xTimerCreate
                0x0800dbc0       0xac /home/jon/dev_src/SEU-Detect-Correct/build/timers.o
                0x0800dbc0                xTimerCreate
 *(.text.GPIO_PinAFConfig)
 *fill*         0x0800dc6c       0x14 00000000
 .text.GPIO_PinAFConfig
                0x0800dc80       0xa8 /home/jon/dev_src/SEU-Detect-Correct/build/stm32f4xx_gpio.o
                0x0800dc80                GPIO_PinAFConfig
 *(.text.TI3_Config)
 *fill*         0x0800dd28       0x18 00000000
 .text.TI3_Config
                0x0800dd40       0xa8 /home/jon/dev_src/SEU-Detect-Correct/build/stm32f4xx_tim.o
 *(.text.USART_ITConfig)
 *fill*         0x0800dde8       0x18 00000000
 .text.USART_ITConfig
                0x0800de00       0xa8 /home/jon/dev_src/SEU-Detect-Correct/build/stm32f4xx_usart.o
                0x0800de00                USART_ITConfig
 *(.text.init_USART3)
 *fill*         0x0800dea8       0x18 00000000
 .text.init_USART3
                0x0800dec0       0xa4 /home/jon/dev_src/SEU-Detect-Correct/build/main.o
                0x0800dec0                init_USART3
 *(.text.__sseek)
 .text.__sseek  0x0800df64       0x20 /home/jon/gcc-arm-none-eabi-5_2-2015q4/arm-none-eabi/lib/armv7e-m/fpu/libc.a(lib_a-stdio.o)
                0x0800df64                __sseek
                0x0800dfa0                . = (. + 0x1c)
 *fill*         0x0800df84       0x1c 00000000
 *(.text.section2_profile_func_enter)
 .text.section2_profile_func_enter
                0x0800dfa0     0x13dc build/trace_functions.o
 *(.text.prvTaskIsTaskSuspended)
 *fill*         0x0800f37c        0x4 00000000
 .text.prvTaskIsTaskSuspended
                0x0800f380       0xa4 /home/jon/dev_src/SEU-Detect-Correct/build/tasks.o
 *(.text.uxTaskPriorityGetFromISR)
 *fill*         0x0800f424       0x1c 00000000
 .text.uxTaskPriorityGetFromISR
                0x0800f440       0xa4 /home/jon/dev_src/SEU-Detect-Correct/build/tasks.o
                0x0800f440                uxTaskPriorityGetFromISR
 *(.text.xQueueTakeMutexRecursive)
 *fill*         0x0800f4e4       0x1c 00000000
 .text.xQueueTakeMutexRecursive
                0x0800f500       0xa4 /home/jon/dev_src/SEU-Detect-Correct/build/queue.o
                0x0800f500                xQueueTakeMutexRecursive
 *(.text.prvInsertTimerInActiveList)
 *fill*         0x0800f5a4       0x1c 00000000
 .text.prvInsertTimerInActiveList
                0x0800f5c0       0xa0 /home/jon/dev_src/SEU-Detect-Correct/build/timers.o
 *(.text.SPI_Init)
 .text.SPI_Init
                0x0800f660       0xa0 /home/jon/dev_src/SEU-Detect-Correct/build/stm32f4xx_spi.o
                0x0800f660                SPI_Init
 *(.text.vPortEnterCritical)
 .text.vPortEnterCritical
                0x0800f700       0xa0 /home/jon/dev_src/SEU-Detect-Correct/build/port.o
                0x0800f700                vPortEnterCritical
 *(.text._malloc_trim_r)
 .text._malloc_trim_r
                0x0800f7a0       0x9c /home/jon/gcc-arm-none-eabi-5_2-2015q4/arm-none-eabi/lib/armv7e-m/fpu/libc.a(lib_a-freer.o)
                0x0800f7a0                _malloc_trim_r
 *(.text.memset)
 .text.memset   0x0800f83c       0x9c /home/jon/gcc-arm-none-eabi-5_2-2015q4/arm-none-eabi/lib/armv7e-m/fpu/libc.a(lib_a-memset.o)
                0x0800f83c                memset
                0x0800f8da                . = (. + 0x2)
 *fill*         0x0800f8d8        0x2 00000000
 *(.text.SYSCFG_EXTILineConfig)
 *fill*         0x0800f8da        0x6 00000000
 .text.SYSCFG_EXTILineConfig
                0x0800f8e0       0x9c /home/jon/dev_src/SEU-Detect-Correct/build/stm32f4xx_syscfg.o
                0x0800f8e0                SYSCFG_EXTILineConfig
 *(.text.TI1_Config)
 *fill*         0x0800f97c        0x4 00000000
 .text.TI1_Config
                0x0800f980       0x9c /home/jon/dev_src/SEU-Detect-Correct/build/stm32f4xx_tim.o
 *(.text.xQueueGiveMutexRecursive)
 *fill*         0x0800fa1c        0x4 00000000
 .text.xQueueGiveMutexRecursive
                0x0800fa20       0x9c /home/jon/dev_src/SEU-Detect-Correct/build/queue.o
                0x0800fa20                xQueueGiveMutexRecursive
 *(.text.xTimerCreateTimerTask)
 *fill*         0x0800fabc        0x4 00000000
 .text.xTimerCreateTimerTask
                0x0800fac0       0x9c /home/jon/dev_src/SEU-Detect-Correct/build/timers.o
                0x0800fac0                xTimerCreateTimerTask
 *(.text.xTimerGenericCommand)
 *fill*         0x0800fb5c        0x4 00000000
 .text.xTimerGenericCommand
                0x0800fb60       0x9c /home/jon/dev_src/SEU-Detect-Correct/build/timers.o
                0x0800fb60                xTimerGenericCommand
 *(.text.prvInitialiseTaskLists)
 *fill*         0x0800fbfc        0x4 00000000
 .text.prvInitialiseTaskLists
                0x0800fc00       0x98 /home/jon/dev_src/SEU-Detect-Correct/build/tasks.o
 *(.text.prvProcessTimerOrBlockTask)
 *fill*         0x0800fc98        0x8 00000000
 .text.prvProcessTimerOrBlockTask
                0x0800fca0       0x98 /home/jon/dev_src/SEU-Detect-Correct/build/timers.o
 *(.text.sinf)
 .text.sinf     0x0800fd38       0x94 /home/jon/gcc-arm-none-eabi-5_2-2015q4/arm-none-eabi/lib/armv7e-m/fpu/libm.a(lib_a-sf_sin.o)
                0x0800fd38                sinf
 *(.text.vEventGroupDelete)
 *fill*         0x0800fdcc       0x14 00000000
 .text.vEventGroupDelete
                0x0800fde0       0x94 /home/jon/dev_src/SEU-Detect-Correct/build/event_groups.o
                0x0800fde0                vEventGroupDelete
 *(.text.vPortExitCritical)
 *fill*         0x0800fe74        0xc 00000000
 .text.vPortExitCritical
                0x0800fe80       0x94 /home/jon/dev_src/SEU-Detect-Correct/build/port.o
                0x0800fe80                vPortExitCritical
 *(.text.DMA_GetFlagStatus)
 *fill*         0x0800ff14        0xc 00000000
 .text.DMA_GetFlagStatus
                0x0800ff20       0x90 /home/jon/dev_src/SEU-Detect-Correct/build/stm32f4xx_dma.o
                0x0800ff20                DMA_GetFlagStatus
 *(.text.floorf)
 .text.floorf   0x0800ffb0       0x90 /home/jon/gcc-arm-none-eabi-5_2-2015q4/arm-none-eabi/lib/armv7e-m/fpu/libm.a(lib_a-sf_floor.o)
                0x0800ffb0                floorf
 *(.text.I2C_DeInit)
 .text.I2C_DeInit
                0x08010040       0x90 /home/jon/dev_src/SEU-Detect-Correct/build/stm32f4xx_i2c.o
                0x08010040                I2C_DeInit
 *(.text.__kernel_sinf)
 .text.__kernel_sinf
                0x080100d0       0x90 /home/jon/gcc-arm-none-eabi-5_2-2015q4/arm-none-eabi/lib/armv7e-m/fpu/libm.a(lib_a-kf_sin.o)
                0x080100d0                __kernel_sinf
 *(.text.prvCheckTasksWaitingTermination)
 .text.prvCheckTasksWaitingTermination
                0x08010160       0x90 /home/jon/dev_src/SEU-Detect-Correct/build/tasks.o
 *(.text.SPI_I2S_DeInit)
 *fill*         0x080101f0       0x10 00000000
 .text.SPI_I2S_DeInit
                0x08010200       0x90 /home/jon/dev_src/SEU-Detect-Correct/build/stm32f4xx_spi.o
                0x08010200                SPI_I2S_DeInit
 *(.text.SPI_I2S_GetITStatus)
 *fill*         0x08010290       0x10 00000000
 .text.SPI_I2S_GetITStatus
                0x080102a0       0x90 /home/jon/dev_src/SEU-Detect-Correct/build/stm32f4xx_spi.o
                0x080102a0                SPI_I2S_GetITStatus
 *(.text.SysTick_Handler)
 *fill*         0x08010330       0x10 00000000
 .text.SysTick_Handler
                0x08010340       0x90 /home/jon/dev_src/SEU-Detect-Correct/build/port.o
                0x08010340                SysTick_Handler
 *(.text.xEventGroupGetBitsFromISR)
 *fill*         0x080103d0       0x10 00000000
 .text.xEventGroupGetBitsFromISR
                0x080103e0       0x90 /home/jon/dev_src/SEU-Detect-Correct/build/event_groups.o
                0x080103e0                xEventGroupGetBitsFromISR
 *(.text.DMA_ITConfig)
 *fill*         0x08010470       0x10 00000000
 .text.DMA_ITConfig
                0x08010480       0x8c /home/jon/dev_src/SEU-Detect-Correct/build/stm32f4xx_dma.o
                0x08010480                DMA_ITConfig
 *(.text.FLASH_ProgramDoubleWord)
 *fill*         0x0801050c       0x14 00000000
 .text.FLASH_ProgramDoubleWord
                0x08010520       0x8c /home/jon/dev_src/SEU-Detect-Correct/build/stm32f4xx_flash.o
                0x08010520                FLASH_ProgramDoubleWord
 *(.text.RCC_GetFlagStatus)
 *fill*         0x080105ac       0x14 00000000
 .text.RCC_GetFlagStatus
                0x080105c0       0x8c /home/jon/dev_src/SEU-Detect-Correct/build/stm32f4xx_rcc.o
                0x080105c0                RCC_GetFlagStatus
 *(.text.FLASH_ProgramHalfWord)
 *fill*         0x0801064c       0x14 00000000
 .text.FLASH_ProgramHalfWord
                0x08010660       0x88 /home/jon/dev_src/SEU-Detect-Correct/build/stm32f4xx_flash.o
                0x08010660                FLASH_ProgramHalfWord
 *(.text.prvAddCurrentTaskToDelayedList)
 *fill*         0x080106e8       0x18 00000000
 .text.prvAddCurrentTaskToDelayedList
                0x08010700       0x88 /home/jon/dev_src/SEU-Detect-Correct/build/tasks.o
 *(.text.prvAllocateTCBAndStack)
 *fill*         0x08010788       0x18 00000000
 .text.prvAllocateTCBAndStack
                0x080107a0       0x88 /home/jon/dev_src/SEU-Detect-Correct/build/tasks.o
 *(.text._reclaim_reent)
 .text._reclaim_reent
                0x08010828       0x88 /home/jon/gcc-arm-none-eabi-5_2-2015q4/arm-none-eabi/lib/armv7e-m/fpu/libc.a(lib_a-reent.o)
                0x08010828                _reclaim_reent
 *(.text.__sfp)
 .text.__sfp    0x080108b0       0x88 /home/jon/gcc-arm-none-eabi-5_2-2015q4/arm-none-eabi/lib/armv7e-m/fpu/libc.a(lib_a-findfp.o)
                0x080108b0                __sfp
 *(.text.vListInsert)
 *fill*         0x08010938        0x8 00000000
 .text.vListInsert
                0x08010940       0x88 /home/jon/dev_src/SEU-Detect-Correct/build/list.o
                0x08010940                vListInsert
 *(.text.DMA_StructInit)
 *fill*         0x080109c8       0x18 00000000
 .text.DMA_StructInit
                0x080109e0       0x84 /home/jon/dev_src/SEU-Detect-Correct/build/stm32f4xx_dma.o
                0x080109e0                DMA_StructInit
 *(.text._fclose_r)
 .text._fclose_r
                0x08010a64       0x84 /home/jon/gcc-arm-none-eabi-5_2-2015q4/arm-none-eabi/lib/armv7e-m/fpu/libc.a(lib_a-fclose.o)
                0x08010a64                _fclose_r
 *(.text.FLASH_ProgramByte)
 *fill*         0x08010ae8       0x18 00000000
 .text.FLASH_ProgramByte
                0x08010b00       0x84 /home/jon/dev_src/SEU-Detect-Correct/build/stm32f4xx_flash.o
                0x08010b00                FLASH_ProgramByte
 *(.text.FLASH_ProgramWord)
 *fill*         0x08010b84       0x1c 00000000
 .text.FLASH_ProgramWord
                0x08010ba0       0x84 /home/jon/dev_src/SEU-Detect-Correct/build/stm32f4xx_flash.o
                0x08010ba0                FLASH_ProgramWord
 *(.text.SystemInit)
 *fill*         0x08010c24       0x1c 00000000
 .text.SystemInit
                0x08010c40       0x84 /home/jon/dev_src/SEU-Detect-Correct/build/system_stm32f4xx.o
                0x08010c40                SystemInit
 *(.text.FLASH_GetStatus)
 *fill*         0x08010cc4       0x1c 00000000
 .text.FLASH_GetStatus
                0x08010ce0       0x80 /home/jon/dev_src/SEU-Detect-Correct/build/stm32f4xx_flash.o
                0x08010ce0                FLASH_GetStatus
 *(.text.I2C_GetFlagStatus)
 .text.I2C_GetFlagStatus
                0x08010d60       0x80 /home/jon/dev_src/SEU-Detect-Correct/build/stm32f4xx_i2c.o
                0x08010d60                I2C_GetFlagStatus
 *(.text.DAC_Init)
 .text.DAC_Init
                0x08010de0       0x7c /home/jon/dev_src/SEU-Detect-Correct/build/stm32f4xx_dac.o
                0x08010de0                DAC_Init
 *(.text.PendSV_Handler)
 *fill*         0x08010e5c        0x4 00000000
 .text.PendSV_Handler
                0x08010e60       0x7c /home/jon/dev_src/SEU-Detect-Correct/build/port.o
                0x08010e60                PendSV_Handler
 *(.text.pxPortInitialiseStack)
 *fill*         0x08010edc        0x4 00000000
 .text.pxPortInitialiseStack
                0x08010ee0       0x7c /home/jon/dev_src/SEU-Detect-Correct/build/port.o
                0x08010ee0                pxPortInitialiseStack
 *(.text.FLASH_OB_WRPConfig)
 *fill*         0x08010f5c        0x4 00000000
 .text.FLASH_OB_WRPConfig
                0x08010f60       0x78 /home/jon/dev_src/SEU-Detect-Correct/build/stm32f4xx_flash.o
                0x08010f60                FLASH_OB_WRPConfig
 *(.text.I2C_CheckEvent)
 *fill*         0x08010fd8        0x8 00000000
 .text.I2C_CheckEvent
                0x08010fe0       0x78 /home/jon/dev_src/SEU-Detect-Correct/build/stm32f4xx_i2c.o
                0x08010fe0                I2C_CheckEvent
 *(.text.prvTaskExitError)
 *fill*         0x08011058        0x8 00000000
 .text.prvTaskExitError
                0x08011060       0x78 /home/jon/dev_src/SEU-Detect-Correct/build/port.o
 *(.text.SPI_I2S_ITConfig)
 *fill*         0x080110d8        0x8 00000000
 .text.SPI_I2S_ITConfig
                0x080110e0       0x78 /home/jon/dev_src/SEU-Detect-Correct/build/stm32f4xx_spi.o
                0x080110e0                SPI_I2S_ITConfig
 *(.text.TIM_ETRClockMode1Config)
 *fill*         0x08011158        0x8 00000000
 .text.TIM_ETRClockMode1Config
                0x08011160       0x78 /home/jon/dev_src/SEU-Detect-Correct/build/stm32f4xx_tim.o
                0x08011160                TIM_ETRClockMode1Config
 *(.text.TIM_TIxExternalClockConfig)
 *fill*         0x080111d8        0x8 00000000
 .text.TIM_TIxExternalClockConfig
                0x080111e0       0x78 /home/jon/dev_src/SEU-Detect-Correct/build/stm32f4xx_tim.o
                0x080111e0                TIM_TIxExternalClockConfig
 *(.text.uxQueueSpacesAvailable)
 *fill*         0x08011258        0x8 00000000
 .text.uxQueueSpacesAvailable
                0x08011260       0x78 /home/jon/dev_src/SEU-Detect-Correct/build/queue.o
                0x08011260                uxQueueSpacesAvailable
 *(.text._write)
 *fill*         0x080112d8        0x8 00000000
 .text._write   0x080112e0       0x78 /home/jon/dev_src/SEU-Detect-Correct/build/syscalls.o
                0x080112e0                _write
 *(.text.xQueueIsQueueFullFromISR)
 *fill*         0x08011358        0x8 00000000
 .text.xQueueIsQueueFullFromISR
                0x08011360       0x78 /home/jon/dev_src/SEU-Detect-Correct/build/queue.o
                0x08011360                xQueueIsQueueFullFromISR
 *(.text.ADC_GetITStatus)
 *fill*         0x080113d8        0x8 00000000
 .text.ADC_GetITStatus
                0x080113e0       0x74 /home/jon/dev_src/SEU-Detect-Correct/build/stm32f4xx_adc.o
                0x080113e0                ADC_GetITStatus
 *(.text.DMA_ClearFlag)
 *fill*         0x08011454        0xc 00000000
 .text.DMA_ClearFlag
                0x08011460       0x74 /home/jon/dev_src/SEU-Detect-Correct/build/stm32f4xx_dma.o
                0x08011460                DMA_ClearFlag
 *(.text.DMA_ClearITPendingBit)
 *fill*         0x080114d4        0xc 00000000
 .text.DMA_ClearITPendingBit
                0x080114e0       0x74 /home/jon/dev_src/SEU-Detect-Correct/build/stm32f4xx_dma.o
                0x080114e0                DMA_ClearITPendingBit
 *(.text.FLASH_OB_UserConfig)
 *fill*         0x08011554        0xc 00000000
 .text.FLASH_OB_UserConfig
                0x08011560       0x74 /home/jon/dev_src/SEU-Detect-Correct/build/stm32f4xx_flash.o
                0x08011560                FLASH_OB_UserConfig
 *(.text.copysignf)
 .text.copysignf
                0x080115d4       0x18 /home/jon/gcc-arm-none-eabi-5_2-2015q4/arm-none-eabi/lib/armv7e-m/fpu/libm.a(lib_a-sf_copysign.o)
                0x080115d4                copysignf
                0x08011608                . = (. + 0x1c)
 *fill*         0x080115ec       0x1c 00000000
 *(.text.section3_profile_func_enter)
 *fill*         0x08011608       0x18 00000000
 .text.section3_profile_func_enter
                0x08011620     0x13d4 build/trace_functions.o
 *(.text.I2C_GetITStatus)
 *fill*         0x080129f4        0xc 00000000
 .text.I2C_GetITStatus
                0x08012a00       0x74 /home/jon/dev_src/SEU-Detect-Correct/build/stm32f4xx_i2c.o
                0x08012a00                I2C_GetITStatus
 *(.text.RCC_RTCCLKConfig)
 *fill*         0x08012a74        0xc 00000000
 .text.RCC_RTCCLKConfig
                0x08012a80       0x74 /home/jon/dev_src/SEU-Detect-Correct/build/stm32f4xx_rcc.o
                0x08012a80                RCC_RTCCLKConfig
 *(.text._sbrk)
 *fill*         0x08012af4        0xc 00000000
 .text._sbrk    0x08012b00       0x74 /home/jon/dev_src/SEU-Detect-Correct/build/syscalls.o
                0x08012b00                _sbrk
 *(.text.TIM_CCxCmd)
 *fill*         0x08012b74        0xc 00000000
 .text.TIM_CCxCmd
                0x08012b80       0x74 /home/jon/dev_src/SEU-Detect-Correct/build/stm32f4xx_tim.o
                0x08012b80                TIM_CCxCmd
 *(.text.TIM_CCxNCmd)
 *fill*         0x08012bf4        0xc 00000000
 .text.TIM_CCxNCmd
                0x08012c00       0x74 /home/jon/dev_src/SEU-Detect-Correct/build/stm32f4xx_tim.o
                0x08012c00                TIM_CCxNCmd
 *(.text.vQueueWaitForMessageRestricted)
 *fill*         0x08012c74        0xc 00000000
 .text.vQueueWaitForMessageRestricted
                0x08012c80       0x74 /home/jon/dev_src/SEU-Detect-Correct/build/queue.o
                0x08012c80                vQueueWaitForMessageRestricted
 *(.text.vTaskSetTimeOutState)
 *fill*         0x08012cf4        0xc 00000000
 .text.vTaskSetTimeOutState
                0x08012d00       0x74 /home/jon/dev_src/SEU-Detect-Correct/build/tasks.o
                0x08012d00                vTaskSetTimeOutState
 *(.text.xQueueIsQueueEmptyFromISR)
 *fill*         0x08012d74        0xc 00000000
 .text.xQueueIsQueueEmptyFromISR
                0x08012d80       0x74 /home/jon/dev_src/SEU-Detect-Correct/build/queue.o
                0x08012d80                xQueueIsQueueEmptyFromISR
 *(.text.DAC_GetITStatus)
 *fill*         0x08012df4        0xc 00000000
 .text.DAC_GetITStatus
                0x08012e00       0x70 /home/jon/dev_src/SEU-Detect-Correct/build/stm32f4xx_dac.o
                0x08012e00                DAC_GetITStatus
 *(.text.DAC_SetDualChannelData)
 *fill*         0x08012e70       0x10 00000000
 .text.DAC_SetDualChannelData
                0x08012e80       0x70 /home/jon/dev_src/SEU-Detect-Correct/build/stm32f4xx_dac.o
                0x08012e80                DAC_SetDualChannelData
 *(.text.main)
 *fill*         0x08012ef0       0x10 00000000
 .text.main     0x08012f00       0x70 /home/jon/dev_src/SEU-Detect-Correct/build/main.o
                0x08012f00                main
 *(.text.uxQueueMessagesWaiting)
 *fill*         0x08012f70       0x10 00000000
 .text.uxQueueMessagesWaiting
                0x08012f80       0x70 /home/jon/dev_src/SEU-Detect-Correct/build/queue.o
                0x08012f80                uxQueueMessagesWaiting
 *(.text.RCC_WaitForHSEStartUp)
 *fill*         0x08012ff0       0x10 00000000
 .text.RCC_WaitForHSEStartUp
                0x08013000       0x6c /home/jon/dev_src/SEU-Detect-Correct/build/stm32f4xx_rcc.o
                0x08013000                RCC_WaitForHSEStartUp
 *(.text.TIM_ETRConfig)
 *fill*         0x0801306c       0x14 00000000
 .text.TIM_ETRConfig
                0x08013080       0x6c /home/jon/dev_src/SEU-Detect-Correct/build/stm32f4xx_tim.o
                0x08013080                TIM_ETRConfig
 *(.text.TIM_GetITStatus)
 *fill*         0x080130ec       0x14 00000000
 .text.TIM_GetITStatus
                0x08013100       0x6c /home/jon/dev_src/SEU-Detect-Correct/build/stm32f4xx_tim.o
                0x08013100                TIM_GetITStatus
 *(.text.USART_ClockInit)
 *fill*         0x0801316c       0x14 00000000
 .text.USART_ClockInit
                0x08013180       0x6c /home/jon/dev_src/SEU-Detect-Correct/build/stm32f4xx_usart.o
                0x08013180                USART_ClockInit
 *(.text.uxListRemove)
 *fill*         0x080131ec       0x14 00000000
 .text.uxListRemove
                0x08013200       0x6c /home/jon/dev_src/SEU-Detect-Correct/build/list.o
                0x08013200                uxListRemove
 *(.text.vQueueDelete)
 *fill*         0x0801326c       0x14 00000000
 .text.vQueueDelete
                0x08013280       0x6c /home/jon/dev_src/SEU-Detect-Correct/build/queue.o
                0x08013280                vQueueDelete
 *(.text.ADC_CommonInit)
 *fill*         0x080132ec       0x14 00000000
 .text.ADC_CommonInit
                0x08013300       0x68 /home/jon/dev_src/SEU-Detect-Correct/build/stm32f4xx_adc.o
                0x08013300                ADC_CommonInit
 *(.text.ADC_ITConfig)
 *fill*         0x08013368       0x18 00000000
 .text.ADC_ITConfig
                0x08013380       0x68 /home/jon/dev_src/SEU-Detect-Correct/build/stm32f4xx_adc.o
                0x08013380                ADC_ITConfig
 *(.text.prvCopyDataFromQueue)
 *fill*         0x080133e8       0x18 00000000
 .text.prvCopyDataFromQueue
                0x08013400       0x68 /home/jon/dev_src/SEU-Detect-Correct/build/queue.o
 *(.text.TIM_BDTRConfig)
 *fill*         0x08013468       0x18 00000000
 .text.TIM_BDTRConfig
                0x08013480       0x68 /home/jon/dev_src/SEU-Detect-Correct/build/stm32f4xx_tim.o
                0x08013480                TIM_BDTRConfig
 *(.text.uxQueueMessagesWaitingFromISR)
 *fill*         0x080134e8       0x18 00000000
 .text.uxQueueMessagesWaitingFromISR
                0x08013500       0x68 /home/jon/dev_src/SEU-Detect-Correct/build/queue.o
                0x08013500                uxQueueMessagesWaitingFromISR
 *(.text.vQueueAddToRegistry)
 *fill*         0x08013568       0x18 00000000
 .text.vQueueAddToRegistry
                0x08013580       0x68 /home/jon/dev_src/SEU-Detect-Correct/build/queue.o
                0x08013580                vQueueAddToRegistry
 *(.text.DAC_DMACmd)
 *fill*         0x080135e8       0x18 00000000
 .text.DAC_DMACmd
                0x08013600       0x64 /home/jon/dev_src/SEU-Detect-Correct/build/stm32f4xx_dac.o
                0x08013600                DAC_DMACmd
 *(.text.DAC_ITConfig)
 *fill*         0x08013664       0x1c 00000000
 .text.DAC_ITConfig
                0x08013680       0x64 /home/jon/dev_src/SEU-Detect-Correct/build/stm32f4xx_dac.o
                0x08013680                DAC_ITConfig
 *(.text.DAC_SoftwareTriggerCmd)
 *fill*         0x080136e4       0x1c 00000000
 .text.DAC_SoftwareTriggerCmd
                0x08013700       0x64 /home/jon/dev_src/SEU-Detect-Correct/build/stm32f4xx_dac.o
                0x08013700                DAC_SoftwareTriggerCmd
 *(.text.DAC_WaveGenerationCmd)
 *fill*         0x08013764       0x1c 00000000
 .text.DAC_WaveGenerationCmd
                0x08013780       0x64 /home/jon/dev_src/SEU-Detect-Correct/build/stm32f4xx_dac.o
                0x08013780                DAC_WaveGenerationCmd
 *(.text.memcmp)
 .text.memcmp   0x080137e4       0x64 /home/jon/gcc-arm-none-eabi-5_2-2015q4/arm-none-eabi/lib/armv7e-m/fpu/libc.a(lib_a-memcmp.o)
                0x080137e4                memcmp
                0x0801384a                . = (. + 0x2)
 *fill*         0x08013848        0x2 00000000
 *(.text._puts_r)
 *fill*         0x0801384a        0x2 00000000
 .text._puts_r  0x0801384c       0x64 /home/jon/gcc-arm-none-eabi-5_2-2015q4/arm-none-eabi/lib/armv7e-m/fpu/libc.a(lib_a-puts.o)
                0x0801384c                _puts_r
 *(.text.RCC_DeInit)
 *fill*         0x080138b0       0x10 00000000
 .text.RCC_DeInit
                0x080138c0       0x64 /home/jon/dev_src/SEU-Detect-Correct/build/stm32f4xx_rcc.o
                0x080138c0                RCC_DeInit
 *(.text.RCC_ITConfig)
 *fill*         0x08013924       0x1c 00000000
 .text.RCC_ITConfig
                0x08013940       0x64 /home/jon/dev_src/SEU-Detect-Correct/build/stm32f4xx_rcc.o
                0x08013940                RCC_ITConfig
 *(.text.TIM_CtrlPWMOutputs)
 *fill*         0x080139a4       0x1c 00000000
 .text.TIM_CtrlPWMOutputs
                0x080139c0       0x64 /home/jon/dev_src/SEU-Detect-Correct/build/stm32f4xx_tim.o
                0x080139c0                TIM_CtrlPWMOutputs
 *(.text.vPortEndScheduler)
 *fill*         0x08013a24       0x1c 00000000
 .text.vPortEndScheduler
                0x08013a40       0x64 /home/jon/dev_src/SEU-Detect-Correct/build/port.o
                0x08013a40                vPortEndScheduler
 *(.text.DAC_Cmd)
 *fill*         0x08013aa4       0x1c 00000000
 .text.DAC_Cmd  0x08013ac0       0x60 /home/jon/dev_src/SEU-Detect-Correct/build/stm32f4xx_dac.o
                0x08013ac0                DAC_Cmd
 *(.text.EXTI_GetITStatus)
 .text.EXTI_GetITStatus
                0x08013b20       0x60 /home/jon/dev_src/SEU-Detect-Correct/build/stm32f4xx_exti.o
                0x08013b20                EXTI_GetITStatus
 *(.text.I2C_ITConfig)
 .text.I2C_ITConfig
                0x08013b80       0x60 /home/jon/dev_src/SEU-Detect-Correct/build/stm32f4xx_i2c.o
                0x08013b80                I2C_ITConfig
 *(.text.prvGetNextExpireTime)
 .text.prvGetNextExpireTime
                0x08013be0       0x60 /home/jon/dev_src/SEU-Detect-Correct/build/timers.o
 *(.text.prvResetNextTaskUnblockTime)
 .text.prvResetNextTaskUnblockTime
                0x08013c40       0x60 /home/jon/dev_src/SEU-Detect-Correct/build/tasks.o
 *(.text.SPI_I2S_DMACmd)
 .text.SPI_I2S_DMACmd
                0x08013ca0       0x60 /home/jon/dev_src/SEU-Detect-Correct/build/stm32f4xx_spi.o
                0x08013ca0                SPI_I2S_DMACmd
 *(.text.SPI_StructInit)
 .text.SPI_StructInit
                0x08013d00       0x60 /home/jon/dev_src/SEU-Detect-Correct/build/stm32f4xx_spi.o
                0x08013d00                SPI_StructInit
 *(.text.TIM_DMACmd)
 .text.TIM_DMACmd
                0x08013d60       0x60 /home/jon/dev_src/SEU-Detect-Correct/build/stm32f4xx_tim.o
                0x08013d60                TIM_DMACmd
 *(.text.TIM_ITConfig)
 .text.TIM_ITConfig
                0x08013dc0       0x60 /home/jon/dev_src/SEU-Detect-Correct/build/stm32f4xx_tim.o
                0x08013dc0                TIM_ITConfig
 *(.text.USART_DMACmd)
 .text.USART_DMACmd
                0x08013e20       0x60 /home/jon/dev_src/SEU-Detect-Correct/build/stm32f4xx_usart.o
                0x08013e20                USART_DMACmd
 *(.text.vListInsertEnd)
 .text.vListInsertEnd
                0x08013e80       0x60 /home/jon/dev_src/SEU-Detect-Correct/build/list.o
                0x08013e80                vListInsertEnd
 *(.text.vTaskEndScheduler)
 .text.vTaskEndScheduler
                0x08013ee0       0x60 /home/jon/dev_src/SEU-Detect-Correct/build/tasks.o
                0x08013ee0                vTaskEndScheduler
 *(.text.ADC_DiscModeChannelCountConfig)
 .text.ADC_DiscModeChannelCountConfig
                0x08013f40       0x5c /home/jon/dev_src/SEU-Detect-Correct/build/stm32f4xx_adc.o
                0x08013f40                ADC_DiscModeChannelCountConfig
 *(.text.ADC_InjectedSequencerLengthConfig)
 *fill*         0x08013f9c        0x4 00000000
 .text.ADC_InjectedSequencerLengthConfig
                0x08013fa0       0x5c /home/jon/dev_src/SEU-Detect-Correct/build/stm32f4xx_adc.o
                0x08013fa0                ADC_InjectedSequencerLengthConfig
 *(.text.GPIO_PinLockConfig)
 *fill*         0x08013ffc        0x4 00000000
 .text.GPIO_PinLockConfig
                0x08014000       0x5c /home/jon/dev_src/SEU-Detect-Correct/build/stm32f4xx_gpio.o
                0x08014000                GPIO_PinLockConfig
 *(.text.I2C_GetLastEvent)
 *fill*         0x0801405c        0x4 00000000
 .text.I2C_GetLastEvent
                0x08014060       0x5c /home/jon/dev_src/SEU-Detect-Correct/build/stm32f4xx_i2c.o
                0x08014060                I2C_GetLastEvent
 *(.text.I2C_SoftwareResetCmd)
 *fill*         0x080140bc        0x4 00000000
 .text.I2C_SoftwareResetCmd
                0x080140c0       0x5c /home/jon/dev_src/SEU-Detect-Correct/build/stm32f4xx_i2c.o
                0x080140c0                I2C_SoftwareResetCmd
 *(.text.prvSampleTimeNow)
 *fill*         0x0801411c        0x4 00000000
 .text.prvSampleTimeNow
                0x08014120       0x5c /home/jon/dev_src/SEU-Detect-Correct/build/timers.o
 *(.text.prvTestWaitCondition)
 *fill*         0x0801417c        0x4 00000000
 .text.prvTestWaitCondition
                0x08014180       0x5c /home/jon/dev_src/SEU-Detect-Correct/build/event_groups.o
 *(.text.SPI_NSSInternalSoftwareConfig)
 *fill*         0x080141dc        0x4 00000000
 .text.SPI_NSSInternalSoftwareConfig
                0x080141e0       0x5c /home/jon/dev_src/SEU-Detect-Correct/build/stm32f4xx_spi.o
                0x080141e0                SPI_NSSInternalSoftwareConfig
 *(.text.TIM_OCStructInit)
 *fill*         0x0801423c        0x4 00000000
 .text.TIM_OCStructInit
                0x08014240       0x5c /home/jon/dev_src/SEU-Detect-Correct/build/stm32f4xx_tim.o
                0x08014240                TIM_OCStructInit
 *(.text.USART_OverSampling8Cmd)
 *fill*         0x0801429c        0x4 00000000
 .text.USART_OverSampling8Cmd
                0x080142a0       0x5c /home/jon/dev_src/SEU-Detect-Correct/build/stm32f4xx_usart.o
                0x080142a0                USART_OverSampling8Cmd
 *(.text.vQueueUnregisterQueue)
 *fill*         0x080142fc        0x4 00000000
 .text.vQueueUnregisterQueue
                0x08014300       0x5c /home/jon/dev_src/SEU-Detect-Correct/build/queue.o
                0x08014300                vQueueUnregisterQueue
 *(.text.I2C_AcknowledgeConfig)
 *fill*         0x0801435c        0x4 00000000
 .text.I2C_AcknowledgeConfig
                0x08014360       0x58 /home/jon/dev_src/SEU-Detect-Correct/build/stm32f4xx_i2c.o
                0x08014360                I2C_AcknowledgeConfig
 *(.text.I2C_ARPCmd)
 *fill*         0x080143b8        0x8 00000000
 .text.I2C_ARPCmd
                0x080143c0       0x58 /home/jon/dev_src/SEU-Detect-Correct/build/stm32f4xx_i2c.o
                0x080143c0                I2C_ARPCmd
 *(.text.I2C_CalculatePEC)
 *fill*         0x08014418        0x8 00000000
 .text.I2C_CalculatePEC
                0x08014420       0x58 /home/jon/dev_src/SEU-Detect-Correct/build/stm32f4xx_i2c.o
                0x08014420                I2C_CalculatePEC
 *(.text.I2C_Cmd)
 *fill*         0x08014478        0x8 00000000
 .text.I2C_Cmd  0x08014480       0x58 /home/jon/dev_src/SEU-Detect-Correct/build/stm32f4xx_i2c.o
                0x08014480                I2C_Cmd
 *(.text.I2C_DMACmd)
 *fill*         0x080144d8        0x8 00000000
 .text.I2C_DMACmd
                0x080144e0       0x58 /home/jon/dev_src/SEU-Detect-Correct/build/stm32f4xx_i2c.o
                0x080144e0                I2C_DMACmd
 *(.text.I2C_DMALastTransferCmd)
 *fill*         0x08014538        0x8 00000000
 .text.I2C_DMALastTransferCmd
                0x08014540       0x58 /home/jon/dev_src/SEU-Detect-Correct/build/stm32f4xx_i2c.o
                0x08014540                I2C_DMALastTransferCmd
 *(.text.I2C_DualAddressCmd)
 *fill*         0x08014598        0x8 00000000
 .text.I2C_DualAddressCmd
                0x080145a0       0x58 /home/jon/dev_src/SEU-Detect-Correct/build/stm32f4xx_i2c.o
                0x080145a0                I2C_DualAddressCmd
 *(.text.I2C_FastModeDutyCycleConfig)
 *fill*         0x080145f8        0x8 00000000
 .text.I2C_FastModeDutyCycleConfig
                0x08014600       0x58 /home/jon/dev_src/SEU-Detect-Correct/build/stm32f4xx_i2c.o
                0x08014600                I2C_FastModeDutyCycleConfig
 *(.text.I2C_GeneralCallCmd)
 *fill*         0x08014658        0x8 00000000
 .text.I2C_GeneralCallCmd
                0x08014660       0x58 /home/jon/dev_src/SEU-Detect-Correct/build/stm32f4xx_i2c.o
                0x08014660                I2C_GeneralCallCmd
 *(.text.I2C_GenerateSTART)
 *fill*         0x080146b8        0x8 00000000
 .text.I2C_GenerateSTART
                0x080146c0       0x58 /home/jon/dev_src/SEU-Detect-Correct/build/stm32f4xx_i2c.o
                0x080146c0                I2C_GenerateSTART
 *(.text.I2C_GenerateSTOP)
 *fill*         0x08014718        0x8 00000000
 .text.I2C_GenerateSTOP
                0x08014720       0x58 /home/jon/dev_src/SEU-Detect-Correct/build/stm32f4xx_i2c.o
                0x08014720                I2C_GenerateSTOP
 *(.text.I2C_NACKPositionConfig)
 *fill*         0x08014778        0x8 00000000
 .text.I2C_NACKPositionConfig
                0x08014780       0x58 /home/jon/dev_src/SEU-Detect-Correct/build/stm32f4xx_i2c.o
                0x08014780                I2C_NACKPositionConfig
 *(.text.I2C_OwnAddress2Config)
 *fill*         0x080147d8        0x8 00000000
 .text.I2C_OwnAddress2Config
                0x080147e0       0x58 /home/jon/dev_src/SEU-Detect-Correct/build/stm32f4xx_i2c.o
                0x080147e0                I2C_OwnAddress2Config
 *(.text.I2C_PECPositionConfig)
 *fill*         0x08014838        0x8 00000000
 .text.I2C_PECPositionConfig
                0x08014840       0x58 /home/jon/dev_src/SEU-Detect-Correct/build/stm32f4xx_i2c.o
                0x08014840                I2C_PECPositionConfig
 *(.text.I2C_SMBusAlertConfig)
 *fill*         0x08014898        0x8 00000000
 .text.I2C_SMBusAlertConfig
                0x080148a0       0x58 /home/jon/dev_src/SEU-Detect-Correct/build/stm32f4xx_i2c.o
                0x080148a0                I2C_SMBusAlertConfig
 *(.text.I2C_StretchClockCmd)
 *fill*         0x080148f8        0x8 00000000
 .text.I2C_StretchClockCmd
                0x08014900       0x58 /home/jon/dev_src/SEU-Detect-Correct/build/stm32f4xx_i2c.o
                0x08014900                I2C_StretchClockCmd
 *(.text.I2C_TransmitPEC)
 *fill*         0x08014958        0x8 00000000
 .text.I2C_TransmitPEC
                0x08014960       0x58 /home/jon/dev_src/SEU-Detect-Correct/build/stm32f4xx_i2c.o
                0x08014960                I2C_TransmitPEC
 *(.text.I2S_Cmd)
 *fill*         0x080149b8        0x8 00000000
 .text.I2S_Cmd  0x080149c0       0x58 /home/jon/dev_src/SEU-Detect-Correct/build/stm32f4xx_spi.o
                0x080149c0                I2S_Cmd
 *(.text.NVIC_SystemLPConfig)
 *fill*         0x08014a18        0x8 00000000
 .text.NVIC_SystemLPConfig
                0x08014a20       0x58 /home/jon/dev_src/SEU-Detect-Correct/build/misc.o
                0x08014a20                NVIC_SystemLPConfig
 *(.text.RCC_LSEConfig)
 *fill*         0x08014a78        0x8 00000000
 .text.RCC_LSEConfig
                0x08014a80       0x58 /home/jon/dev_src/SEU-Detect-Correct/build/stm32f4xx_rcc.o
                0x08014a80                RCC_LSEConfig
 *(.text.SPI_BiDirectionalLineConfig)
 *fill*         0x08014ad8        0x8 00000000
 .text.SPI_BiDirectionalLineConfig
                0x08014ae0       0x58 /home/jon/dev_src/SEU-Detect-Correct/build/stm32f4xx_spi.o
                0x08014ae0                SPI_BiDirectionalLineConfig
 *(.text.SPI_CalculateCRC)
 *fill*         0x08014b38        0x8 00000000
 .text.SPI_CalculateCRC
                0x08014b40       0x58 /home/jon/dev_src/SEU-Detect-Correct/build/stm32f4xx_spi.o
                0x08014b40                SPI_CalculateCRC
 *(.text.SPI_Cmd)
 *fill*         0x08014b98        0x8 00000000
 .text.SPI_Cmd  0x08014ba0       0x58 /home/jon/dev_src/SEU-Detect-Correct/build/stm32f4xx_spi.o
                0x08014ba0                SPI_Cmd
 *(.text.SPI_SSOutputCmd)
 *fill*         0x08014bf8        0x8 00000000
 .text.SPI_SSOutputCmd
                0x08014c00       0x58 /home/jon/dev_src/SEU-Detect-Correct/build/stm32f4xx_spi.o
                0x08014c00                SPI_SSOutputCmd
 *(.text.SPI_TIModeCmd)
 *fill*         0x08014c58        0x8 00000000
 .text.SPI_TIModeCmd
                0x08014c60       0x58 /home/jon/dev_src/SEU-Detect-Correct/build/stm32f4xx_spi.o
                0x08014c60                SPI_TIModeCmd
 *(.text.TIM_ARRPreloadConfig)
 *fill*         0x08014cb8        0x8 00000000
 .text.TIM_ARRPreloadConfig
                0x08014cc0       0x58 /home/jon/dev_src/SEU-Detect-Correct/build/stm32f4xx_tim.o
                0x08014cc0                TIM_ARRPreloadConfig
 *(.text.TIM_CCPreloadControl)
 *fill*         0x08014d18        0x8 00000000
 .text.TIM_CCPreloadControl
                0x08014d20       0x58 /home/jon/dev_src/SEU-Detect-Correct/build/stm32f4xx_tim.o
                0x08014d20                TIM_CCPreloadControl
 *(.text._cleanup)
 .text._cleanup
                0x08014d78       0x14 /home/jon/gcc-arm-none-eabi-5_2-2015q4/arm-none-eabi/lib/armv7e-m/fpu/libc.a(lib_a-findfp.o)
                0x08014d78                _cleanup
                0x08014da8                . = (. + 0x1c)
 *fill*         0x08014d8c       0x1c 00000000
 *(.text.TIM_Cmd)
 *fill*         0x08014da8       0x18 00000000
 .text.TIM_Cmd  0x08014dc0       0x58 /home/jon/dev_src/SEU-Detect-Correct/build/stm32f4xx_tim.o
                0x08014dc0                TIM_Cmd
 *(.text.TIM_ETRClockMode2Config)
 *fill*         0x08014e18        0x8 00000000
 .text.TIM_ETRClockMode2Config
                0x08014e20       0x58 /home/jon/dev_src/SEU-Detect-Correct/build/stm32f4xx_tim.o
                0x08014e20                TIM_ETRClockMode2Config
 *(.text.TIM_SelectCCDMA)
 *fill*         0x08014e78        0x8 00000000
 .text.TIM_SelectCCDMA
                0x08014e80       0x58 /home/jon/dev_src/SEU-Detect-Correct/build/stm32f4xx_tim.o
                0x08014e80                TIM_SelectCCDMA
 *(.text.TIM_SelectCOM)
 *fill*         0x08014ed8        0x8 00000000
 .text.TIM_SelectCOM
                0x08014ee0       0x58 /home/jon/dev_src/SEU-Detect-Correct/build/stm32f4xx_tim.o
                0x08014ee0                TIM_SelectCOM
 *(.text.TIM_SelectHallSensor)
 *fill*         0x08014f38        0x8 00000000
 .text.TIM_SelectHallSensor
                0x08014f40       0x58 /home/jon/dev_src/SEU-Detect-Correct/build/stm32f4xx_tim.o
                0x08014f40                TIM_SelectHallSensor
 *(.text.TIM_UpdateDisableConfig)
 *fill*         0x08014f98        0x8 00000000
 .text.TIM_UpdateDisableConfig
                0x08014fa0       0x58 /home/jon/dev_src/SEU-Detect-Correct/build/stm32f4xx_tim.o
                0x08014fa0                TIM_UpdateDisableConfig
 *(.text.TIM_UpdateRequestConfig)
 *fill*         0x08014ff8        0x8 00000000
 .text.TIM_UpdateRequestConfig
                0x08015000       0x58 /home/jon/dev_src/SEU-Detect-Correct/build/stm32f4xx_tim.o
                0x08015000                TIM_UpdateRequestConfig
 *(.text.USART_Cmd)
 *fill*         0x08015058        0x8 00000000
 .text.USART_Cmd
                0x08015060       0x58 /home/jon/dev_src/SEU-Detect-Correct/build/stm32f4xx_usart.o
                0x08015060                USART_Cmd
 *(.text.USART_HalfDuplexCmd)
 *fill*         0x080150b8        0x8 00000000
 .text.USART_HalfDuplexCmd
                0x080150c0       0x58 /home/jon/dev_src/SEU-Detect-Correct/build/stm32f4xx_usart.o
                0x080150c0                USART_HalfDuplexCmd
 *(.text.USART_IrDACmd)
 *fill*         0x08015118        0x8 00000000
 .text.USART_IrDACmd
                0x08015120       0x58 /home/jon/dev_src/SEU-Detect-Correct/build/stm32f4xx_usart.o
                0x08015120                USART_IrDACmd
 *(.text.USART_LINCmd)
 *fill*         0x08015178        0x8 00000000
 .text.USART_LINCmd
                0x08015180       0x58 /home/jon/dev_src/SEU-Detect-Correct/build/stm32f4xx_usart.o
                0x08015180                USART_LINCmd
 *(.text.USART_OneBitMethodCmd)
 *fill*         0x080151d8        0x8 00000000
 .text.USART_OneBitMethodCmd
                0x080151e0       0x58 /home/jon/dev_src/SEU-Detect-Correct/build/stm32f4xx_usart.o
                0x080151e0                USART_OneBitMethodCmd
 *(.text.USART_ReceiverWakeUpCmd)
 *fill*         0x08015238        0x8 00000000
 .text.USART_ReceiverWakeUpCmd
                0x08015240       0x58 /home/jon/dev_src/SEU-Detect-Correct/build/stm32f4xx_usart.o
                0x08015240                USART_ReceiverWakeUpCmd
 *(.text.USART_SmartCardCmd)
 *fill*         0x08015298        0x8 00000000
 .text.USART_SmartCardCmd
                0x080152a0       0x58 /home/jon/dev_src/SEU-Detect-Correct/build/stm32f4xx_usart.o
                0x080152a0                USART_SmartCardCmd
 *(.text.USART_SmartCardNACKCmd)
 *fill*         0x080152f8        0x8 00000000
 .text.USART_SmartCardNACKCmd
                0x08015300       0x58 /home/jon/dev_src/SEU-Detect-Correct/build/stm32f4xx_usart.o
                0x08015300                USART_SmartCardNACKCmd
 *(.text.vListInitialise)
 *fill*         0x08015358        0x8 00000000
 .text.vListInitialise
                0x08015360       0x58 /home/jon/dev_src/SEU-Detect-Correct/build/list.o
                0x08015360                vListInitialise
 *(.text.ADC_StructInit)
 *fill*         0x080153b8        0x8 00000000
 .text.ADC_StructInit
                0x080153c0       0x54 /home/jon/dev_src/SEU-Detect-Correct/build/stm32f4xx_adc.o
                0x080153c0                ADC_StructInit
 *(.text.DAC_GetFlagStatus)
 *fill*         0x08015414        0xc 00000000
 .text.DAC_GetFlagStatus
                0x08015420       0x54 /home/jon/dev_src/SEU-Detect-Correct/build/stm32f4xx_dac.o
                0x08015420                DAC_GetFlagStatus
 *(.text.DMA_DoubleBufferModeConfig)
 *fill*         0x08015474        0xc 00000000
 .text.DMA_DoubleBufferModeConfig
                0x08015480       0x54 /home/jon/dev_src/SEU-Detect-Correct/build/stm32f4xx_dma.o
                0x08015480                DMA_DoubleBufferModeConfig
 *(.text.FLASH_ITConfig)
 *fill*         0x080154d4        0xc 00000000
 .text.FLASH_ITConfig
                0x080154e0       0x54 /home/jon/dev_src/SEU-Detect-Correct/build/stm32f4xx_flash.o
                0x080154e0                FLASH_ITConfig
 *(.text._fwalk_reent)
 .text._fwalk_reent
                0x08015534       0x54 /home/jon/gcc-arm-none-eabi-5_2-2015q4/arm-none-eabi/lib/armv7e-m/fpu/libc.a(lib_a-fwalk.o)
                0x08015534                _fwalk_reent
                0x0801558a                . = (. + 0x2)
 *fill*         0x08015588        0x2 00000000
 *(.text.I2C_Send7bitAddress)
 *fill*         0x0801558a       0x16 00000000
 .text.I2C_Send7bitAddress
                0x080155a0       0x54 /home/jon/dev_src/SEU-Detect-Correct/build/stm32f4xx_i2c.o
                0x080155a0                I2C_Send7bitAddress
 *(.text.I2C_StructInit)
 *fill*         0x080155f4        0xc 00000000
 .text.I2C_StructInit
                0x08015600       0x54 /home/jon/dev_src/SEU-Detect-Correct/build/stm32f4xx_i2c.o
                0x08015600                I2C_StructInit
 *(.text.RCC_AdjustHSICalibrationValue)
 *fill*         0x08015654        0xc 00000000
 .text.RCC_AdjustHSICalibrationValue
                0x08015660       0x54 /home/jon/dev_src/SEU-Detect-Correct/build/stm32f4xx_rcc.o
                0x08015660                RCC_AdjustHSICalibrationValue
 *(.text.RCC_AHB1PeriphClockCmd)
 *fill*         0x080156b4        0xc 00000000
 .text.RCC_AHB1PeriphClockCmd
                0x080156c0       0x54 /home/jon/dev_src/SEU-Detect-Correct/build/stm32f4xx_rcc.o
                0x080156c0                RCC_AHB1PeriphClockCmd
 *(.text.RCC_AHB1PeriphClockLPModeCmd)
 *fill*         0x08015714        0xc 00000000
 .text.RCC_AHB1PeriphClockLPModeCmd
                0x08015720       0x54 /home/jon/dev_src/SEU-Detect-Correct/build/stm32f4xx_rcc.o
                0x08015720                RCC_AHB1PeriphClockLPModeCmd
 *(.text.RCC_AHB1PeriphResetCmd)
 *fill*         0x08015774        0xc 00000000
 .text.RCC_AHB1PeriphResetCmd
                0x08015780       0x54 /home/jon/dev_src/SEU-Detect-Correct/build/stm32f4xx_rcc.o
                0x08015780                RCC_AHB1PeriphResetCmd
 *(.text.RCC_AHB2PeriphClockCmd)
 *fill*         0x080157d4        0xc 00000000
 .text.RCC_AHB2PeriphClockCmd
                0x080157e0       0x54 /home/jon/dev_src/SEU-Detect-Correct/build/stm32f4xx_rcc.o
                0x080157e0                RCC_AHB2PeriphClockCmd
 *(.text.RCC_AHB2PeriphClockLPModeCmd)
 *fill*         0x08015834        0xc 00000000
 .text.RCC_AHB2PeriphClockLPModeCmd
                0x08015840       0x54 /home/jon/dev_src/SEU-Detect-Correct/build/stm32f4xx_rcc.o
                0x08015840                RCC_AHB2PeriphClockLPModeCmd
 *(.text.RCC_AHB2PeriphResetCmd)
 *fill*         0x08015894        0xc 00000000
 .text.RCC_AHB2PeriphResetCmd
                0x080158a0       0x54 /home/jon/dev_src/SEU-Detect-Correct/build/stm32f4xx_rcc.o
                0x080158a0                RCC_AHB2PeriphResetCmd
 *(.text.RCC_AHB3PeriphClockCmd)
 *fill*         0x080158f4        0xc 00000000
 .text.RCC_AHB3PeriphClockCmd
                0x08015900       0x54 /home/jon/dev_src/SEU-Detect-Correct/build/stm32f4xx_rcc.o
                0x08015900                RCC_AHB3PeriphClockCmd
 *(.text.RCC_AHB3PeriphClockLPModeCmd)
 *fill*         0x08015954        0xc 00000000
 .text.RCC_AHB3PeriphClockLPModeCmd
                0x08015960       0x54 /home/jon/dev_src/SEU-Detect-Correct/build/stm32f4xx_rcc.o
                0x08015960                RCC_AHB3PeriphClockLPModeCmd
 *(.text.RCC_AHB3PeriphResetCmd)
 *fill*         0x080159b4        0xc 00000000
 .text.RCC_AHB3PeriphResetCmd
                0x080159c0       0x54 /home/jon/dev_src/SEU-Detect-Correct/build/stm32f4xx_rcc.o
                0x080159c0                RCC_AHB3PeriphResetCmd
 *(.text.RCC_APB1PeriphClockCmd)
 *fill*         0x08015a14        0xc 00000000
 .text.RCC_APB1PeriphClockCmd
                0x08015a20       0x54 /home/jon/dev_src/SEU-Detect-Correct/build/stm32f4xx_rcc.o
                0x08015a20                RCC_APB1PeriphClockCmd
 *(.text.RCC_APB1PeriphClockLPModeCmd)
 *fill*         0x08015a74        0xc 00000000
 .text.RCC_APB1PeriphClockLPModeCmd
                0x08015a80       0x54 /home/jon/dev_src/SEU-Detect-Correct/build/stm32f4xx_rcc.o
                0x08015a80                RCC_APB1PeriphClockLPModeCmd
 *(.text.RCC_APB1PeriphResetCmd)
 *fill*         0x08015ad4        0xc 00000000
 .text.RCC_APB1PeriphResetCmd
                0x08015ae0       0x54 /home/jon/dev_src/SEU-Detect-Correct/build/stm32f4xx_rcc.o
                0x08015ae0                RCC_APB1PeriphResetCmd
 *(.text.RCC_APB2PeriphClockCmd)
 *fill*         0x08015b34        0xc 00000000
 .text.RCC_APB2PeriphClockCmd
                0x08015b40       0x54 /home/jon/dev_src/SEU-Detect-Correct/build/stm32f4xx_rcc.o
                0x08015b40                RCC_APB2PeriphClockCmd
 *(.text.RCC_APB2PeriphClockLPModeCmd)
 *fill*         0x08015b94        0xc 00000000
 .text.RCC_APB2PeriphClockLPModeCmd
                0x08015ba0       0x54 /home/jon/dev_src/SEU-Detect-Correct/build/stm32f4xx_rcc.o
                0x08015ba0                RCC_APB2PeriphClockLPModeCmd
 *(.text.RCC_APB2PeriphResetCmd)
 *fill*         0x08015bf4        0xc 00000000
 .text.RCC_APB2PeriphResetCmd
                0x08015c00       0x54 /home/jon/dev_src/SEU-Detect-Correct/build/stm32f4xx_rcc.o
                0x08015c00                RCC_APB2PeriphResetCmd
 *(.text.RCC_MCO1Config)
 *fill*         0x08015c54        0xc 00000000
 .text.RCC_MCO1Config
                0x08015c60       0x54 /home/jon/dev_src/SEU-Detect-Correct/build/stm32f4xx_rcc.o
                0x08015c60                RCC_MCO1Config
 *(.text.RCC_MCO2Config)
 *fill*         0x08015cb4        0xc 00000000
 .text.RCC_MCO2Config
                0x08015cc0       0x54 /home/jon/dev_src/SEU-Detect-Correct/build/stm32f4xx_rcc.o
                0x08015cc0                RCC_MCO2Config
 *(.text.RCC_PLLConfig)
 *fill*         0x08015d14        0xc 00000000
 .text.RCC_PLLConfig
                0x08015d20       0x54 /home/jon/dev_src/SEU-Detect-Correct/build/stm32f4xx_rcc.o
                0x08015d20                RCC_PLLConfig
 *(.text.TIM_BDTRStructInit)
 *fill*         0x08015d74        0xc 00000000
 .text.TIM_BDTRStructInit
                0x08015d80       0x54 /home/jon/dev_src/SEU-Detect-Correct/build/stm32f4xx_tim.o
                0x08015d80                TIM_BDTRStructInit
 *(.text.TIM_ClearOC2Ref)
 *fill*         0x08015dd4        0xc 00000000
 .text.TIM_ClearOC2Ref
                0x08015de0       0x54 /home/jon/dev_src/SEU-Detect-Correct/build/stm32f4xx_tim.o
                0x08015de0                TIM_ClearOC2Ref
 *(.text.TIM_ClearOC4Ref)
 *fill*         0x08015e34        0xc 00000000
 .text.TIM_ClearOC4Ref
                0x08015e40       0x54 /home/jon/dev_src/SEU-Detect-Correct/build/stm32f4xx_tim.o
                0x08015e40                TIM_ClearOC4Ref
 *(.text.TIM_ForcedOC2Config)
 *fill*         0x08015e94        0xc 00000000
 .text.TIM_ForcedOC2Config
                0x08015ea0       0x54 /home/jon/dev_src/SEU-Detect-Correct/build/stm32f4xx_tim.o
                0x08015ea0                TIM_ForcedOC2Config
 *(.text.TIM_ForcedOC4Config)
 *fill*         0x08015ef4        0xc 00000000
 .text.TIM_ForcedOC4Config
                0x08015f00       0x54 /home/jon/dev_src/SEU-Detect-Correct/build/stm32f4xx_tim.o
                0x08015f00                TIM_ForcedOC4Config
 *(.text.TIM_OC2FastConfig)
 *fill*         0x08015f54        0xc 00000000
 .text.TIM_OC2FastConfig
                0x08015f60       0x54 /home/jon/dev_src/SEU-Detect-Correct/build/stm32f4xx_tim.o
                0x08015f60                TIM_OC2FastConfig
 *(.text.TIM_OC2NPolarityConfig)
 *fill*         0x08015fb4        0xc 00000000
 .text.TIM_OC2NPolarityConfig
                0x08015fc0       0x54 /home/jon/dev_src/SEU-Detect-Correct/build/stm32f4xx_tim.o
                0x08015fc0                TIM_OC2NPolarityConfig
 *(.text.TIM_OC2PolarityConfig)
 *fill*         0x08016014        0xc 00000000
 .text.TIM_OC2PolarityConfig
                0x08016020       0x54 /home/jon/dev_src/SEU-Detect-Correct/build/stm32f4xx_tim.o
                0x08016020                TIM_OC2PolarityConfig
 *(.text.TIM_OC2PreloadConfig)
 *fill*         0x08016074        0xc 00000000
 .text.TIM_OC2PreloadConfig
                0x08016080       0x54 /home/jon/dev_src/SEU-Detect-Correct/build/stm32f4xx_tim.o
                0x08016080                TIM_OC2PreloadConfig
 *(.text.TIM_OC3NPolarityConfig)
 *fill*         0x080160d4        0xc 00000000
 .text.TIM_OC3NPolarityConfig
                0x080160e0       0x54 /home/jon/dev_src/SEU-Detect-Correct/build/stm32f4xx_tim.o
                0x080160e0                TIM_OC3NPolarityConfig
 *(.text.TIM_OC3PolarityConfig)
 *fill*         0x08016134        0xc 00000000
 .text.TIM_OC3PolarityConfig
                0x08016140       0x54 /home/jon/dev_src/SEU-Detect-Correct/build/stm32f4xx_tim.o
                0x08016140                TIM_OC3PolarityConfig
 *(.text.TIM_OC4FastConfig)
 *fill*         0x08016194        0xc 00000000
 .text.TIM_OC4FastConfig
                0x080161a0       0x54 /home/jon/dev_src/SEU-Detect-Correct/build/stm32f4xx_tim.o
                0x080161a0                TIM_OC4FastConfig
 *(.text.TIM_OC4PolarityConfig)
 *fill*         0x080161f4        0xc 00000000
 .text.TIM_OC4PolarityConfig
                0x08016200       0x54 /home/jon/dev_src/SEU-Detect-Correct/build/stm32f4xx_tim.o
                0x08016200                TIM_OC4PolarityConfig
 *(.text.TIM_OC4PreloadConfig)
 *fill*         0x08016254        0xc 00000000
 .text.TIM_OC4PreloadConfig
                0x08016260       0x54 /home/jon/dev_src/SEU-Detect-Correct/build/stm32f4xx_tim.o
                0x08016260                TIM_OC4PreloadConfig
 *(.text.TIM_SetIC2Prescaler)
 *fill*         0x080162b4        0xc 00000000
 .text.TIM_SetIC2Prescaler
                0x080162c0       0x54 /home/jon/dev_src/SEU-Detect-Correct/build/stm32f4xx_tim.o
                0x080162c0                TIM_SetIC2Prescaler
 *(.text.TIM_SetIC4Prescaler)
 *fill*         0x08016314        0xc 00000000
 .text.TIM_SetIC4Prescaler
                0x08016320       0x54 /home/jon/dev_src/SEU-Detect-Correct/build/stm32f4xx_tim.o
                0x08016320                TIM_SetIC4Prescaler
 *(.text.USART_SetGuardTime)
 *fill*         0x08016374        0xc 00000000
 .text.USART_SetGuardTime
                0x08016380       0x54 /home/jon/dev_src/SEU-Detect-Correct/build/stm32f4xx_usart.o
                0x08016380                USART_SetGuardTime
 *(.text.xTaskGetSchedulerState)
 *fill*         0x080163d4        0xc 00000000
 .text.xTaskGetSchedulerState
                0x080163e0       0x54 /home/jon/dev_src/SEU-Detect-Correct/build/tasks.o
                0x080163e0                xTaskGetSchedulerState
 *(.text.ADC_AnalogWatchdogSingleChannelConfig)
 *fill*         0x08016434        0xc 00000000
 .text.ADC_AnalogWatchdogSingleChannelConfig
                0x08016440       0x50 /home/jon/dev_src/SEU-Detect-Correct/build/stm32f4xx_adc.o
                0x08016440                ADC_AnalogWatchdogSingleChannelConfig
 *(.text.ADC_AutoInjectedConvCmd)
 *fill*         0x08016490       0x10 00000000
 .text.ADC_AutoInjectedConvCmd
                0x080164a0       0x50 /home/jon/dev_src/SEU-Detect-Correct/build/stm32f4xx_adc.o
                0x080164a0                ADC_AutoInjectedConvCmd
 *(.text.ADC_Cmd)
 *fill*         0x080164f0       0x10 00000000
 .text.ADC_Cmd  0x08016500       0x50 /home/jon/dev_src/SEU-Detect-Correct/build/stm32f4xx_adc.o
                0x08016500                ADC_Cmd
 *(.text.ADC_ContinuousModeCmd)
 *fill*         0x08016550       0x10 00000000
 .text.ADC_ContinuousModeCmd
                0x08016560       0x50 /home/jon/dev_src/SEU-Detect-Correct/build/stm32f4xx_adc.o
                0x08016560                ADC_ContinuousModeCmd
 *(.text.ADC_DiscModeCmd)
 *fill*         0x080165b0       0x10 00000000
 .text.ADC_DiscModeCmd
                0x080165c0       0x50 /home/jon/dev_src/SEU-Detect-Correct/build/stm32f4xx_adc.o
                0x080165c0                ADC_DiscModeCmd
 *(.text.ADC_DMACmd)
 *fill*         0x08016610       0x10 00000000
 .text.ADC_DMACmd
                0x08016620       0x50 /home/jon/dev_src/SEU-Detect-Correct/build/stm32f4xx_adc.o
                0x08016620                ADC_DMACmd
 *(.text.ADC_DMARequestAfterLastTransferCmd)
 *fill*         0x08016670       0x10 00000000
 .text.ADC_DMARequestAfterLastTransferCmd
                0x08016680       0x50 /home/jon/dev_src/SEU-Detect-Correct/build/stm32f4xx_adc.o
                0x08016680                ADC_DMARequestAfterLastTransferCmd
 *(.text.ADC_EOCOnEachRegularChannelCmd)
 *fill*         0x080166d0       0x10 00000000
 .text.ADC_EOCOnEachRegularChannelCmd
                0x080166e0       0x50 /home/jon/dev_src/SEU-Detect-Correct/build/stm32f4xx_adc.o
                0x080166e0                ADC_EOCOnEachRegularChannelCmd
 *(.text.ADC_InjectedDiscModeCmd)
 *fill*         0x08016730       0x10 00000000
 .text.ADC_InjectedDiscModeCmd
                0x08016740       0x50 /home/jon/dev_src/SEU-Detect-Correct/build/stm32f4xx_adc.o
                0x08016740                ADC_InjectedDiscModeCmd
 *(.text.ADC_MultiModeDMARequestAfterLastTransferCmd)
 *fill*         0x08016790       0x10 00000000
 .text.ADC_MultiModeDMARequestAfterLastTransferCmd
                0x080167a0       0x50 /home/jon/dev_src/SEU-Detect-Correct/build/stm32f4xx_adc.o
                0x080167a0                ADC_MultiModeDMARequestAfterLastTransferCmd
 *(.text.ADC_TempSensorVrefintCmd)
 *fill*         0x080167f0       0x10 00000000
 .text.ADC_TempSensorVrefintCmd
                0x08016800       0x50 /home/jon/dev_src/SEU-Detect-Correct/build/stm32f4xx_adc.o
                0x08016800                ADC_TempSensorVrefintCmd
 *(.text.ADC_VBATCmd)
 *fill*         0x08016850       0x10 00000000
 .text.ADC_VBATCmd
                0x08016860       0x50 /home/jon/dev_src/SEU-Detect-Correct/build/stm32f4xx_adc.o
                0x08016860                ADC_VBATCmd
 *(.text.DAC_DualSoftwareTriggerCmd)
 *fill*         0x080168b0       0x10 00000000
 .text.DAC_DualSoftwareTriggerCmd
                0x080168c0       0x50 /home/jon/dev_src/SEU-Detect-Correct/build/stm32f4xx_dac.o
                0x080168c0                DAC_DualSoftwareTriggerCmd
 *(.text.DMA_Cmd)
 *fill*         0x08016910       0x10 00000000
 .text.DMA_Cmd  0x08016920       0x50 /home/jon/dev_src/SEU-Detect-Correct/build/stm32f4xx_dma.o
                0x08016920                DMA_Cmd
 *(.text.DMA_DoubleBufferModeCmd)
 *fill*         0x08016970       0x10 00000000
 .text.DMA_DoubleBufferModeCmd
                0x08016980       0x50 /home/jon/dev_src/SEU-Detect-Correct/build/stm32f4xx_dma.o
                0x08016980                DMA_DoubleBufferModeCmd
 *(.text.FLASH_DataCacheCmd)
 *fill*         0x080169d0       0x10 00000000
 .text.FLASH_DataCacheCmd
                0x080169e0       0x50 /home/jon/dev_src/SEU-Detect-Correct/build/stm32f4xx_flash.o
                0x080169e0                FLASH_DataCacheCmd
 *(.text.FLASH_InstructionCacheCmd)
 *fill*         0x08016a30       0x10 00000000
 .text.FLASH_InstructionCacheCmd
                0x08016a40       0x50 /home/jon/dev_src/SEU-Detect-Correct/build/stm32f4xx_flash.o
                0x08016a40                FLASH_InstructionCacheCmd
 *(.text.FLASH_OB_BORConfig)
 *fill*         0x08016a90       0x10 00000000
 .text.FLASH_OB_BORConfig
                0x08016aa0       0x50 /home/jon/dev_src/SEU-Detect-Correct/build/stm32f4xx_flash.o
                0x08016aa0                FLASH_OB_BORConfig
 *(.text.FLASH_PrefetchBufferCmd)
 *fill*         0x08016af0       0x10 00000000
 .text.FLASH_PrefetchBufferCmd
                0x08016b00       0x50 /home/jon/dev_src/SEU-Detect-Correct/build/stm32f4xx_flash.o
                0x08016b00                FLASH_PrefetchBufferCmd
 *(.text.I2S_StructInit)
 *fill*         0x08016b50       0x10 00000000
 .text.I2S_StructInit
                0x08016b60       0x50 /home/jon/dev_src/SEU-Detect-Correct/build/stm32f4xx_spi.o
                0x08016b60                I2S_StructInit
 *(.text.prvTaskCheckFreeStackSpace)
 *fill*         0x08016bb0       0x10 00000000
 .text.prvTaskCheckFreeStackSpace
                0x08016bc0       0x50 /home/jon/dev_src/SEU-Detect-Correct/build/tasks.o
 *(.text.RCC_GetITStatus)
 *fill*         0x08016c10       0x10 00000000
 .text.RCC_GetITStatus
                0x08016c20       0x50 /home/jon/dev_src/SEU-Detect-Correct/build/stm32f4xx_rcc.o
                0x08016c20                RCC_GetITStatus
 *(.text.RCC_HCLKConfig)
 *fill*         0x08016c70       0x10 00000000
 .text.RCC_HCLKConfig
                0x08016c80       0x50 /home/jon/dev_src/SEU-Detect-Correct/build/stm32f4xx_rcc.o
                0x08016c80                RCC_HCLKConfig
 *(.text.RCC_PCLK1Config)
 *fill*         0x08016cd0       0x10 00000000
 .text.RCC_PCLK1Config
                0x08016ce0       0x50 /home/jon/dev_src/SEU-Detect-Correct/build/stm32f4xx_rcc.o
                0x08016ce0                RCC_PCLK1Config
 *(.text.RCC_PCLK2Config)
 *fill*         0x08016d30       0x10 00000000
 .text.RCC_PCLK2Config
                0x08016d40       0x50 /home/jon/dev_src/SEU-Detect-Correct/build/stm32f4xx_rcc.o
                0x08016d40                RCC_PCLK2Config
 *(.text.RCC_SYSCLKConfig)
 *fill*         0x08016d90       0x10 00000000
 .text.RCC_SYSCLKConfig
                0x08016da0       0x50 /home/jon/dev_src/SEU-Detect-Correct/build/stm32f4xx_rcc.o
                0x08016da0                RCC_SYSCLKConfig
 *(.text.RNG_Cmd)
 *fill*         0x08016df0       0x10 00000000
 .text.RNG_Cmd  0x08016e00       0x50 /home/jon/dev_src/SEU-Detect-Correct/build/stm32f4xx_rng.o
                0x08016e00                RNG_Cmd
 *(.text.RNG_GetFlagStatus)
 *fill*         0x08016e50       0x10 00000000
 .text.RNG_GetFlagStatus
                0x08016e60       0x50 /home/jon/dev_src/SEU-Detect-Correct/build/stm32f4xx_rng.o
                0x08016e60                RNG_GetFlagStatus
 *(.text.RNG_GetITStatus)
 *fill*         0x08016eb0       0x10 00000000
 .text.RNG_GetITStatus
                0x08016ec0       0x50 /home/jon/dev_src/SEU-Detect-Correct/build/stm32f4xx_rng.o
                0x08016ec0                RNG_GetITStatus
 *(.text.RNG_ITConfig)
 *fill*         0x08016f10       0x10 00000000
 .text.RNG_ITConfig
                0x08016f20       0x50 /home/jon/dev_src/SEU-Detect-Correct/build/stm32f4xx_rng.o
                0x08016f20                RNG_ITConfig
 *(.text.SPI_DataSizeConfig)
 *fill*         0x08016f70       0x10 00000000
 .text.SPI_DataSizeConfig
                0x08016f80       0x50 /home/jon/dev_src/SEU-Detect-Correct/build/stm32f4xx_spi.o
                0x08016f80                SPI_DataSizeConfig
 *(.text.SPI_I2S_GetFlagStatus)
 *fill*         0x08016fd0       0x10 00000000
 .text.SPI_I2S_GetFlagStatus
                0x08016fe0       0x50 /home/jon/dev_src/SEU-Detect-Correct/build/stm32f4xx_spi.o
                0x08016fe0                SPI_I2S_GetFlagStatus
 *(.text.SysTick_CLKSourceConfig)
 *fill*         0x08017030       0x10 00000000
 .text.SysTick_CLKSourceConfig
                0x08017040       0x50 /home/jon/dev_src/SEU-Detect-Correct/build/misc.o
                0x08017040                SysTick_CLKSourceConfig
 *(.text.TIM_ClearOC1Ref)
 *fill*         0x08017090       0x10 00000000
 .text.TIM_ClearOC1Ref
                0x080170a0       0x50 /home/jon/dev_src/SEU-Detect-Correct/build/stm32f4xx_tim.o
                0x080170a0                TIM_ClearOC1Ref
 *(.text.TIM_ClearOC3Ref)
 *fill*         0x080170f0       0x10 00000000
 .text.TIM_ClearOC3Ref
                0x08017100       0x50 /home/jon/dev_src/SEU-Detect-Correct/build/stm32f4xx_tim.o
                0x08017100                TIM_ClearOC3Ref
 *(.text.TIM_CounterModeConfig)
 *fill*         0x08017150       0x10 00000000
 .text.TIM_CounterModeConfig
                0x08017160       0x50 /home/jon/dev_src/SEU-Detect-Correct/build/stm32f4xx_tim.o
                0x08017160                TIM_CounterModeConfig
 *(.text.TIM_ForcedOC1Config)
 *fill*         0x080171b0       0x10 00000000
 .text.TIM_ForcedOC1Config
                0x080171c0       0x50 /home/jon/dev_src/SEU-Detect-Correct/build/stm32f4xx_tim.o
                0x080171c0                TIM_ForcedOC1Config
 *(.text.TIM_ForcedOC3Config)
 *fill*         0x08017210       0x10 00000000
 .text.TIM_ForcedOC3Config
                0x08017220       0x50 /home/jon/dev_src/SEU-Detect-Correct/build/stm32f4xx_tim.o
                0x08017220                TIM_ForcedOC3Config
 *(.text.TIM_GetFlagStatus)
 *fill*         0x08017270       0x10 00000000
 .text.TIM_GetFlagStatus
                0x08017280       0x50 /home/jon/dev_src/SEU-Detect-Correct/build/stm32f4xx_tim.o
                0x08017280                TIM_GetFlagStatus
 *(.text.TIM_OC1FastConfig)
 *fill*         0x080172d0       0x10 00000000
 .text.TIM_OC1FastConfig
                0x080172e0       0x50 /home/jon/dev_src/SEU-Detect-Correct/build/stm32f4xx_tim.o
                0x080172e0                TIM_OC1FastConfig
 *(.text.TIM_OC1NPolarityConfig)
 *fill*         0x08017330       0x10 00000000
 .text.TIM_OC1NPolarityConfig
                0x08017340       0x50 /home/jon/dev_src/SEU-Detect-Correct/build/stm32f4xx_tim.o
                0x08017340                TIM_OC1NPolarityConfig
 *(.text.TIM_OC1PolarityConfig)
 *fill*         0x08017390       0x10 00000000
 .text.TIM_OC1PolarityConfig
                0x080173a0       0x50 /home/jon/dev_src/SEU-Detect-Correct/build/stm32f4xx_tim.o
                0x080173a0                TIM_OC1PolarityConfig
 *(.text.TIM_OC1PreloadConfig)
 *fill*         0x080173f0       0x10 00000000
 .text.TIM_OC1PreloadConfig
                0x08017400       0x50 /home/jon/dev_src/SEU-Detect-Correct/build/stm32f4xx_tim.o
                0x08017400                TIM_OC1PreloadConfig
 *(.text.TIM_OC3FastConfig)
 *fill*         0x08017450       0x10 00000000
 .text.TIM_OC3FastConfig
                0x08017460       0x50 /home/jon/dev_src/SEU-Detect-Correct/build/stm32f4xx_tim.o
                0x08017460                TIM_OC3FastConfig
 *(.text.TIM_OC3PreloadConfig)
 *fill*         0x080174b0       0x10 00000000
 .text.TIM_OC3PreloadConfig
                0x080174c0       0x50 /home/jon/dev_src/SEU-Detect-Correct/build/stm32f4xx_tim.o
                0x080174c0                TIM_OC3PreloadConfig
 *(.text.TIM_SelectInputTrigger)
 *fill*         0x08017510       0x10 00000000
 .text.TIM_SelectInputTrigger
                0x08017520       0x50 /home/jon/dev_src/SEU-Detect-Correct/build/stm32f4xx_tim.o
                0x08017520                TIM_SelectInputTrigger
 *(.text.TIM_SelectMasterSlaveMode)
 *fill*         0x08017570       0x10 00000000
 .text.TIM_SelectMasterSlaveMode
                0x08017580       0x50 /home/jon/dev_src/SEU-Detect-Correct/build/stm32f4xx_tim.o
                0x08017580                TIM_SelectMasterSlaveMode
 *(.text.TIM_SelectOnePulseMode)
 *fill*         0x080175d0       0x10 00000000
 .text.TIM_SelectOnePulseMode
                0x080175e0       0x50 /home/jon/dev_src/SEU-Detect-Correct/build/stm32f4xx_tim.o
                0x080175e0                TIM_SelectOnePulseMode
 *(.text.TIM_SelectOutputTrigger)
 *fill*         0x08017630       0x10 00000000
 .text.TIM_SelectOutputTrigger
                0x08017640       0x50 /home/jon/dev_src/SEU-Detect-Correct/build/stm32f4xx_tim.o
                0x08017640                TIM_SelectOutputTrigger
 *(.text.TIM_SelectSlaveMode)
 *fill*         0x08017690       0x10 00000000
 .text.TIM_SelectSlaveMode
                0x080176a0       0x50 /home/jon/dev_src/SEU-Detect-Correct/build/stm32f4xx_tim.o
                0x080176a0                TIM_SelectSlaveMode
 *(.text.TIM_SetClockDivision)
 *fill*         0x080176f0       0x10 00000000
 .text.TIM_SetClockDivision
                0x08017700       0x50 /home/jon/dev_src/SEU-Detect-Correct/build/stm32f4xx_tim.o
                0x08017700                TIM_SetClockDivision
 *(.text.TIM_SetIC1Prescaler)
 *fill*         0x08017750       0x10 00000000
 .text.TIM_SetIC1Prescaler
                0x08017760       0x50 /home/jon/dev_src/SEU-Detect-Correct/build/stm32f4xx_tim.o
                0x08017760                TIM_SetIC1Prescaler
 *(.text.TIM_SetIC3Prescaler)
 *fill*         0x080177b0       0x10 00000000
 .text.TIM_SetIC3Prescaler
                0x080177c0       0x50 /home/jon/dev_src/SEU-Detect-Correct/build/stm32f4xx_tim.o
                0x080177c0                TIM_SetIC3Prescaler
 *(.text.USART_ClearITPendingBit)
 *fill*         0x08017810       0x10 00000000
 .text.USART_ClearITPendingBit
                0x08017820       0x50 /home/jon/dev_src/SEU-Detect-Correct/build/stm32f4xx_usart.o
                0x08017820                USART_ClearITPendingBit
 *(.text.USART_GetFlagStatus)
 *fill*         0x08017870       0x10 00000000
 .text.USART_GetFlagStatus
                0x08017880       0x50 /home/jon/dev_src/SEU-Detect-Correct/build/stm32f4xx_usart.o
                0x08017880                USART_GetFlagStatus
 *(.text.USART_IrDAConfig)
 *fill*         0x080178d0       0x10 00000000
 .text.USART_IrDAConfig
                0x080178e0       0x50 /home/jon/dev_src/SEU-Detect-Correct/build/stm32f4xx_usart.o
                0x080178e0                USART_IrDAConfig
 *(.text.USART_LINBreakDetectLengthConfig)
 *fill*         0x08017930       0x10 00000000
 .text.USART_LINBreakDetectLengthConfig
                0x08017940       0x50 /home/jon/dev_src/SEU-Detect-Correct/build/stm32f4xx_usart.o
                0x08017940                USART_LINBreakDetectLengthConfig
 *(.text.USART_SetAddress)
 *fill*         0x08017990       0x10 00000000
 .text.USART_SetAddress
                0x080179a0       0x50 /home/jon/dev_src/SEU-Detect-Correct/build/stm32f4xx_usart.o
                0x080179a0                USART_SetAddress
 *(.text.USART_SetPrescaler)
 *fill*         0x080179f0       0x10 00000000
 .text.USART_SetPrescaler
                0x08017a00       0x50 /home/jon/dev_src/SEU-Detect-Correct/build/stm32f4xx_usart.o
                0x08017a00                USART_SetPrescaler
 *(.text.USART_StructInit)
 *fill*         0x08017a50       0x10 00000000
 .text.USART_StructInit
                0x08017a60       0x50 /home/jon/dev_src/SEU-Detect-Correct/build/stm32f4xx_usart.o
                0x08017a60                USART_StructInit
 *(.text.USART_WakeUpConfig)
 *fill*         0x08017ab0       0x10 00000000
 .text.USART_WakeUpConfig
                0x08017ac0       0x50 /home/jon/dev_src/SEU-Detect-Correct/build/stm32f4xx_usart.o
                0x08017ac0                USART_WakeUpConfig
 *(.text.uxTaskPriorityGet)
 *fill*         0x08017b10       0x10 00000000
 .text.uxTaskPriorityGet
                0x08017b20       0x50 /home/jon/dev_src/SEU-Detect-Correct/build/tasks.o
                0x08017b20                uxTaskPriorityGet
 *(.text.ADC_ExternalTrigInjectedConvConfig)
 *fill*         0x08017b70       0x10 00000000
 .text.ADC_ExternalTrigInjectedConvConfig
                0x08017b80       0x4c /home/jon/dev_src/SEU-Detect-Correct/build/stm32f4xx_adc.o
                0x08017b80                ADC_ExternalTrigInjectedConvConfig
 *(.text.ADC_ExternalTrigInjectedConvEdgeConfig)
 *fill*         0x08017bcc       0x14 00000000
 .text.ADC_ExternalTrigInjectedConvEdgeConfig
                0x08017be0       0x4c /home/jon/dev_src/SEU-Detect-Correct/build/stm32f4xx_adc.o
                0x08017be0                ADC_ExternalTrigInjectedConvEdgeConfig
 *(.text.ADC_GetFlagStatus)
 *fill*         0x08017c2c       0x14 00000000
 .text.ADC_GetFlagStatus
                0x08017c40       0x4c /home/jon/dev_src/SEU-Detect-Correct/build/stm32f4xx_adc.o
                0x08017c40                ADC_GetFlagStatus
 *(.text.ADC_SetInjectedOffset)
 *fill*         0x08017c8c       0x14 00000000
 .text.ADC_SetInjectedOffset
                0x08017ca0       0x4c /home/jon/dev_src/SEU-Detect-Correct/build/stm32f4xx_adc.o
                0x08017ca0                ADC_SetInjectedOffset
 *(.text.DAC_GetDataOutputValue)
 *fill*         0x08017cec       0x14 00000000
 .text.DAC_GetDataOutputValue
                0x08017d00       0x4c /home/jon/dev_src/SEU-Detect-Correct/build/stm32f4xx_dac.o
                0x08017d00                DAC_GetDataOutputValue
 *(.text.DAC_SetChannel1Data)
 *fill*         0x08017d4c       0x14 00000000
 .text.DAC_SetChannel1Data
                0x08017d60       0x4c /home/jon/dev_src/SEU-Detect-Correct/build/stm32f4xx_dac.o
                0x08017d60                DAC_SetChannel1Data
 *(.text.DAC_SetChannel2Data)
 *fill*         0x08017dac       0x14 00000000
 .text.DAC_SetChannel2Data
                0x08017dc0       0x4c /home/jon/dev_src/SEU-Detect-Correct/build/stm32f4xx_dac.o
                0x08017dc0                DAC_SetChannel2Data
 *(.text.DMA_FlowControllerConfig)
 *fill*         0x08017e0c       0x14 00000000
 .text.DMA_FlowControllerConfig
                0x08017e20       0x4c /home/jon/dev_src/SEU-Detect-Correct/build/stm32f4xx_dma.o
                0x08017e20                DMA_FlowControllerConfig
 *(.text.DMA_PeriphIncOffsetSizeConfig)
 *fill*         0x08017e6c       0x14 00000000
 .text.DMA_PeriphIncOffsetSizeConfig
                0x08017e80       0x4c /home/jon/dev_src/SEU-Detect-Correct/build/stm32f4xx_dma.o
                0x08017e80                DMA_PeriphIncOffsetSizeConfig
 *(.text.EXTI_GetFlagStatus)
 *fill*         0x08017ecc       0x14 00000000
 .text.EXTI_GetFlagStatus
                0x08017ee0       0x4c /home/jon/dev_src/SEU-Detect-Correct/build/stm32f4xx_exti.o
                0x08017ee0                EXTI_GetFlagStatus
 *(.text.FLASH_GetFlagStatus)
 *fill*         0x08017f2c       0x14 00000000
 .text.FLASH_GetFlagStatus
                0x08017f40       0x4c /home/jon/dev_src/SEU-Detect-Correct/build/stm32f4xx_flash.o
                0x08017f40                FLASH_GetFlagStatus
 *(.text.FLASH_OB_Launch)
 *fill*         0x08017f8c       0x14 00000000
 .text.FLASH_OB_Launch
                0x08017fa0       0x4c /home/jon/dev_src/SEU-Detect-Correct/build/stm32f4xx_flash.o
                0x08017fa0                FLASH_OB_Launch
 *(.text.FLASH_WaitForLastOperation)
 *fill*         0x08017fec       0x14 00000000
 .text.FLASH_WaitForLastOperation
                0x08018000       0x4c /home/jon/dev_src/SEU-Detect-Correct/build/stm32f4xx_flash.o
                0x08018000                FLASH_WaitForLastOperation
 *(.text._fwalk)
 .text._fwalk   0x0801804c       0x4c /home/jon/gcc-arm-none-eabi-5_2-2015q4/arm-none-eabi/lib/armv7e-m/fpu/libc.a(lib_a-fwalk.o)
                0x0801804c                _fwalk
                0x0801809a                . = (. + 0x2)
 *fill*         0x08018098        0x2 00000000
 *(.text.GPIO_ReadInputDataBit)
 *fill*         0x0801809a        0x6 00000000
 .text.GPIO_ReadInputDataBit
                0x080180a0       0x4c /home/jon/dev_src/SEU-Detect-Correct/build/stm32f4xx_gpio.o
                0x080180a0                GPIO_ReadInputDataBit
 *(.text.GPIO_ReadOutputDataBit)
 *fill*         0x080180ec       0x14 00000000
 .text.GPIO_ReadOutputDataBit
                0x08018100       0x4c /home/jon/dev_src/SEU-Detect-Correct/build/stm32f4xx_gpio.o
                0x08018100                GPIO_ReadOutputDataBit
 *(.text.GPIO_StructInit)
 *fill*         0x0801814c       0x14 00000000
 .text.GPIO_StructInit
                0x08018160       0x4c /home/jon/dev_src/SEU-Detect-Correct/build/stm32f4xx_gpio.o
                0x08018160                GPIO_StructInit
 *(.text.prvIsQueueFull)
 *fill*         0x080181ac       0x14 00000000
 .text.prvIsQueueFull
                0x080181c0       0x4c /home/jon/dev_src/SEU-Detect-Correct/build/queue.o
 *(.text.SPI_GetCRC)
 *fill*         0x0801820c       0x14 00000000
 .text.SPI_GetCRC
                0x08018220       0x4c /home/jon/dev_src/SEU-Detect-Correct/build/stm32f4xx_spi.o
                0x08018220                SPI_GetCRC
 *(.text.SPI_I2S_ClearITPendingBit)
 *fill*         0x0801826c       0x14 00000000
 .text.SPI_I2S_ClearITPendingBit
                0x08018280       0x4c /home/jon/dev_src/SEU-Detect-Correct/build/stm32f4xx_spi.o
                0x08018280                SPI_I2S_ClearITPendingBit
 *(.text.SYSCFG_GetCompensationCellStatus)
 *fill*         0x080182cc       0x14 00000000
 .text.SYSCFG_GetCompensationCellStatus
                0x080182e0       0x4c /home/jon/dev_src/SEU-Detect-Correct/build/stm32f4xx_syscfg.o
                0x080182e0                SYSCFG_GetCompensationCellStatus
 *(.text.test_FPU_test)
 *fill*         0x0801832c       0x14 00000000
 .text.test_FPU_test
                0x08018340       0x4c /home/jon/dev_src/SEU-Detect-Correct/build/main.o
                0x08018340                test_FPU_test
 *(.text.TIM_TimeBaseStructInit)
 *fill*         0x0801838c       0x14 00000000
 .text.TIM_TimeBaseStructInit
                0x080183a0       0x4c /home/jon/dev_src/SEU-Detect-Correct/build/stm32f4xx_tim.o
                0x080183a0                TIM_TimeBaseStructInit
 *(.text.vPortSetupTimerInterrupt)
 *fill*         0x080183ec       0x14 00000000
 .text.vPortSetupTimerInterrupt
                0x08018400       0x4c /home/jon/dev_src/SEU-Detect-Correct/build/port.o
                0x08018400                vPortSetupTimerInterrupt
 *(.text.xEventGroupCreate)
 *fill*         0x0801844c       0x14 00000000
 .text.xEventGroupCreate
                0x08018460       0x4c /home/jon/dev_src/SEU-Detect-Correct/build/event_groups.o
                0x08018460                xEventGroupCreate
 *(.text.xTimerIsTimerActive)
 *fill*         0x080184ac       0x14 00000000
 .text.xTimerIsTimerActive
                0x080184c0       0x4c /home/jon/dev_src/SEU-Detect-Correct/build/timers.o
                0x080184c0                xTimerIsTimerActive
 *(.text.ADC_GetInjectedConversionValue)
 *fill*         0x0801850c       0x14 00000000
 .text.ADC_GetInjectedConversionValue
                0x08018520       0x48 /home/jon/dev_src/SEU-Detect-Correct/build/stm32f4xx_adc.o
                0x08018520                ADC_GetInjectedConversionValue
 *(.text.ADC_GetSoftwareStartConvStatus)
 *fill*         0x08018568       0x18 00000000
 .text.ADC_GetSoftwareStartConvStatus
                0x08018580       0x48 /home/jon/dev_src/SEU-Detect-Correct/build/stm32f4xx_adc.o
                0x08018580                ADC_GetSoftwareStartConvStatus
 *(.text.ADC_GetSoftwareStartInjectedConvCmdStatus)
 *fill*         0x080185c8       0x18 00000000
 .text.ADC_GetSoftwareStartInjectedConvCmdStatus
                0x080185e0       0x48 /home/jon/dev_src/SEU-Detect-Correct/build/stm32f4xx_adc.o
                0x080185e0                ADC_GetSoftwareStartInjectedConvCmdStatus
 *(.text.DMA_GetCmdStatus)
 *fill*         0x08018628       0x18 00000000
 .text.DMA_GetCmdStatus
                0x08018640       0x48 /home/jon/dev_src/SEU-Detect-Correct/build/stm32f4xx_dma.o
                0x08018640                DMA_GetCmdStatus
 *(.text.DMA_GetCurrentMemoryTarget)
 *fill*         0x08018688       0x18 00000000
 .text.DMA_GetCurrentMemoryTarget
                0x080186a0       0x48 /home/jon/dev_src/SEU-Detect-Correct/build/stm32f4xx_dma.o
                0x080186a0                DMA_GetCurrentMemoryTarget
 *(.text.EXTI_DeInit)
 *fill*         0x080186e8       0x18 00000000
 .text.EXTI_DeInit
                0x08018700       0x48 /home/jon/dev_src/SEU-Detect-Correct/build/stm32f4xx_exti.o
                0x08018700                EXTI_DeInit
 *(.text.FLASH_OB_GetRDP)
 *fill*         0x08018748       0x18 00000000
 .text.FLASH_OB_GetRDP
                0x08018760       0x48 /home/jon/dev_src/SEU-Detect-Correct/build/stm32f4xx_flash.o
                0x08018760                FLASH_OB_GetRDP
 *(.text.FLASH_OB_RDPConfig)
 *fill*         0x080187a8       0x18 00000000
 .text.FLASH_OB_RDPConfig
                0x080187c0       0x48 /home/jon/dev_src/SEU-Detect-Correct/build/stm32f4xx_flash.o
                0x080187c0                FLASH_OB_RDPConfig
 *(.text.FLASH_OB_Unlock)
 *fill*         0x08018808       0x18 00000000
 .text.FLASH_OB_Unlock
                0x08018820       0x48 /home/jon/dev_src/SEU-Detect-Correct/build/stm32f4xx_flash.o
                0x08018820                FLASH_OB_Unlock
 *(.text.GPIO_WriteBit)
 *fill*         0x08018868       0x18 00000000
 .text.GPIO_WriteBit
                0x08018880       0x48 /home/jon/dev_src/SEU-Detect-Correct/build/stm32f4xx_gpio.o
                0x08018880                GPIO_WriteBit
 *(.text.I2C_ReadRegister)
 *fill*         0x080188c8       0x18 00000000
 .text.I2C_ReadRegister
                0x080188e0       0x48 /home/jon/dev_src/SEU-Detect-Correct/build/stm32f4xx_i2c.o
                0x080188e0                I2C_ReadRegister
 *(.text.prvIsQueueEmpty)
 *fill*         0x08018928       0x18 00000000
 .text.prvIsQueueEmpty
                0x08018940       0x48 /home/jon/dev_src/SEU-Detect-Correct/build/queue.o
 *(.text.TIM_ICStructInit)
 *fill*         0x08018988       0x18 00000000
 .text.TIM_ICStructInit
                0x080189a0       0x48 /home/jon/dev_src/SEU-Detect-Correct/build/stm32f4xx_tim.o
                0x080189a0                TIM_ICStructInit
 *(.text.TIM_ITRxExternalClockConfig)
 *fill*         0x080189e8       0x18 00000000
 .text.TIM_ITRxExternalClockConfig
                0x08018a00       0x48 /home/jon/dev_src/SEU-Detect-Correct/build/stm32f4xx_tim.o
                0x08018a00                TIM_ITRxExternalClockConfig
 *(.text.uxTaskResetEventItemValue)
 *fill*         0x08018a48       0x18 00000000
 .text.uxTaskResetEventItemValue
                0x08018a60       0x48 /home/jon/dev_src/SEU-Detect-Correct/build/tasks.o
                0x08018a60                uxTaskResetEventItemValue
 *(.text.vApplicationStackOverflowHook)
 *fill*         0x08018aa8       0x18 00000000
 .text.vApplicationStackOverflowHook
                0x08018ac0       0x48 /home/jon/dev_src/SEU-Detect-Correct/build/main.o
                0x08018ac0                vApplicationStackOverflowHook
 *(.text.ADC_ClearITPendingBit)
 *fill*         0x08018b08       0x18 00000000
 .text.ADC_ClearITPendingBit
                0x08018b20       0x44 /home/jon/dev_src/SEU-Detect-Correct/build/stm32f4xx_adc.o
                0x08018b20                ADC_ClearITPendingBit
 *(.text.__cyg_profile_func_exit)
 *fill*         0x08018b64       0x1c 00000000
 .text.__cyg_profile_func_exit
                0x08018b80       0x18 build/trace_functions.o
                0x08018b80                __cyg_profile_func_exit
                0x08018b9a                . = (. + 0x2)
 *fill*         0x08018b98        0x2 00000000
                0x08018bb6                . = (. + 0x1c)
 *fill*         0x08018b9a       0x1c 00000000
 *(.text.ADC_CommonStructInit)
 *fill*         0x08018bb6        0xa 00000000
 .text.ADC_CommonStructInit
                0x08018bc0       0x44 /home/jon/dev_src/SEU-Detect-Correct/build/stm32f4xx_adc.o
                0x08018bc0                ADC_CommonStructInit
 *(.text.DAC_StructInit)
 *fill*         0x08018c04       0x1c 00000000
 .text.DAC_StructInit
                0x08018c20       0x44 /home/jon/dev_src/SEU-Detect-Correct/build/stm32f4xx_dac.o
                0x08018c20                DAC_StructInit
 *(.text.DMA_MemoryTargetConfig)
 *fill*         0x08018c64       0x1c 00000000
 .text.DMA_MemoryTargetConfig
                0x08018c80       0x44 /home/jon/dev_src/SEU-Detect-Correct/build/stm32f4xx_dma.o
                0x08018c80                DMA_MemoryTargetConfig
 *(.text.EXTI_StructInit)
 *fill*         0x08018cc4       0x1c 00000000
 .text.EXTI_StructInit
                0x08018ce0       0x44 /home/jon/dev_src/SEU-Detect-Correct/build/stm32f4xx_exti.o
                0x08018ce0                EXTI_StructInit
 *(.text.FLASH_Unlock)
 *fill*         0x08018d24       0x1c 00000000
 .text.FLASH_Unlock
                0x08018d40       0x44 /home/jon/dev_src/SEU-Detect-Correct/build/stm32f4xx_flash.o
                0x08018d40                FLASH_Unlock
 *(.text._fstat)
 *fill*         0x08018d84       0x1c 00000000
 .text._fstat   0x08018da0       0x44 /home/jon/dev_src/SEU-Detect-Correct/build/syscalls.o
                0x08018da0                _fstat
 *(.text.I2C_ClearFlag)
 *fill*         0x08018de4       0x1c 00000000
 .text.I2C_ClearFlag
                0x08018e00       0x44 /home/jon/dev_src/SEU-Detect-Correct/build/stm32f4xx_i2c.o
                0x08018e00                I2C_ClearFlag
 *(.text.I2C_ClearITPendingBit)
 *fill*         0x08018e44       0x1c 00000000
 .text.I2C_ClearITPendingBit
                0x08018e60       0x44 /home/jon/dev_src/SEU-Detect-Correct/build/stm32f4xx_i2c.o
                0x08018e60                I2C_ClearITPendingBit
 *(.text.NVIC_SetVectorTable)
 *fill*         0x08018ea4       0x1c 00000000
 .text.NVIC_SetVectorTable
                0x08018ec0       0x44 /home/jon/dev_src/SEU-Detect-Correct/build/misc.o
                0x08018ec0                NVIC_SetVectorTable
 *(.text.USART_ClockStructInit)
 *fill*         0x08018f04       0x1c 00000000
 .text.USART_ClockStructInit
                0x08018f20       0x44 /home/jon/dev_src/SEU-Detect-Correct/build/stm32f4xx_usart.o
                0x08018f20                USART_ClockStructInit
 *(.text.uxEventGroupGetNumber)
 *fill*         0x08018f64       0x1c 00000000
 .text.uxEventGroupGetNumber
                0x08018f80       0x44 /home/jon/dev_src/SEU-Detect-Correct/build/event_groups.o
                0x08018f80                uxEventGroupGetNumber
 *(.text.uxTaskGetTaskNumber)
 *fill*         0x08018fc4       0x1c 00000000
 .text.uxTaskGetTaskNumber
                0x08018fe0       0x44 /home/jon/dev_src/SEU-Detect-Correct/build/tasks.o
                0x08018fe0                uxTaskGetTaskNumber
 *(.text.vApplicationMallocFailedHook)
 *fill*         0x08019024       0x1c 00000000
 .text.vApplicationMallocFailedHook
                0x08019040       0x44 /home/jon/dev_src/SEU-Detect-Correct/build/main.o
                0x08019040                vApplicationMallocFailedHook
 *(.text.ADC_AnalogWatchdogThresholdsConfig)
 *fill*         0x08019084       0x1c 00000000
 .text.ADC_AnalogWatchdogThresholdsConfig
                0x080190a0       0x40 /home/jon/dev_src/SEU-Detect-Correct/build/stm32f4xx_adc.o
                0x080190a0                ADC_AnalogWatchdogThresholdsConfig
 *(.text.prvIdleTask)
 .text.prvIdleTask
                0x080190e0       0x40 /home/jon/dev_src/SEU-Detect-Correct/build/tasks.o
 *(.text.pvTaskIncrementMutexHeldCount)
 .text.pvTaskIncrementMutexHeldCount
                0x08019120       0x40 /home/jon/dev_src/SEU-Detect-Correct/build/tasks.o
                0x08019120                pvTaskIncrementMutexHeldCount
 *(.text.RCC_PLLI2SConfig)
 .text.RCC_PLLI2SConfig
                0x08019160       0x40 /home/jon/dev_src/SEU-Detect-Correct/build/stm32f4xx_rcc.o
                0x08019160                RCC_PLLI2SConfig
 *(.text._read)
 .text._read    0x080191a0       0x40 /home/jon/dev_src/SEU-Detect-Correct/build/syscalls.o
                0x080191a0                _read
 *(.text.TIM_DMAConfig)
 .text.TIM_DMAConfig
                0x080191e0       0x40 /home/jon/dev_src/SEU-Detect-Correct/build/stm32f4xx_tim.o
                0x080191e0                TIM_DMAConfig
 *(.text.TIM_PrescalerConfig)
 .text.TIM_PrescalerConfig
                0x08019220       0x40 /home/jon/dev_src/SEU-Detect-Correct/build/stm32f4xx_tim.o
                0x08019220                TIM_PrescalerConfig
 *(.text.xTaskGetTickCountFromISR)
 .text.xTaskGetTickCountFromISR
                0x08019260       0x40 /home/jon/dev_src/SEU-Detect-Correct/build/tasks.o
                0x08019260                xTaskGetTickCountFromISR
 *(.text.DAC_ClearFlag)
 .text.DAC_ClearFlag
                0x080192a0       0x3c /home/jon/dev_src/SEU-Detect-Correct/build/stm32f4xx_dac.o
                0x080192a0                DAC_ClearFlag
 *(.text.DAC_ClearITPendingBit)
 *fill*         0x080192dc        0x4 00000000
 .text.DAC_ClearITPendingBit
                0x080192e0       0x3c /home/jon/dev_src/SEU-Detect-Correct/build/stm32f4xx_dac.o
                0x080192e0                DAC_ClearITPendingBit
 *(.text.DMA_GetFIFOStatus)
 *fill*         0x0801931c        0x4 00000000
 .text.DMA_GetFIFOStatus
                0x08019320       0x3c /home/jon/dev_src/SEU-Detect-Correct/build/stm32f4xx_dma.o
                0x08019320                DMA_GetFIFOStatus
 *(.text.EXTI_GenerateSWInterrupt)
 *fill*         0x0801935c        0x4 00000000
 .text.EXTI_GenerateSWInterrupt
                0x08019360       0x3c /home/jon/dev_src/SEU-Detect-Correct/build/stm32f4xx_exti.o
                0x08019360                EXTI_GenerateSWInterrupt
 *(.text.GPIO_ToggleBits)
 *fill*         0x0801939c        0x4 00000000
 .text.GPIO_ToggleBits
                0x080193a0       0x3c /home/jon/dev_src/SEU-Detect-Correct/build/stm32f4xx_gpio.o
                0x080193a0                GPIO_ToggleBits
 *(.text._kill)
 *fill*         0x080193dc        0x4 00000000
 .text._kill    0x080193e0       0x3c /home/jon/dev_src/SEU-Detect-Correct/build/syscalls.o
                0x080193e0                _kill
 *(.text.NVIC_PriorityGroupConfig)
 *fill*         0x0801941c        0x4 00000000
 .text.NVIC_PriorityGroupConfig
                0x08019420       0x3c /home/jon/dev_src/SEU-Detect-Correct/build/misc.o
                0x08019420                NVIC_PriorityGroupConfig
 *(.text.prvDeleteTCB)
 *fill*         0x0801945c        0x4 00000000
 .text.prvDeleteTCB
                0x08019460       0x3c /home/jon/dev_src/SEU-Detect-Correct/build/tasks.o
 *(.text.RCC_HSEConfig)
 *fill*         0x0801949c        0x4 00000000
 .text.RCC_HSEConfig
                0x080194a0       0x3c /home/jon/dev_src/SEU-Detect-Correct/build/stm32f4xx_rcc.o
                0x080194a0                RCC_HSEConfig
 *(.text.RNG_ClearFlag)
 *fill*         0x080194dc        0x4 00000000
 .text.RNG_ClearFlag
                0x080194e0       0x3c /home/jon/dev_src/SEU-Detect-Correct/build/stm32f4xx_rng.o
                0x080194e0                RNG_ClearFlag
 *(.text.RNG_ClearITPendingBit)
 *fill*         0x0801951c        0x4 00000000
 .text.RNG_ClearITPendingBit
                0x08019520       0x3c /home/jon/dev_src/SEU-Detect-Correct/build/stm32f4xx_rng.o
                0x08019520                RNG_ClearITPendingBit
 *(.text.SPI_TransmitCRC)
 *fill*         0x0801955c        0x4 00000000
 .text.SPI_TransmitCRC
                0x08019560       0x3c /home/jon/dev_src/SEU-Detect-Correct/build/stm32f4xx_spi.o
                0x08019560                SPI_TransmitCRC
 *(.text.SVC_Handler)
 *fill*         0x0801959c        0x4 00000000
 .text.SVC_Handler
                0x080195a0       0x3c /home/jon/dev_src/SEU-Detect-Correct/build/port.o
                0x080195a0                SVC_Handler
 *(.text.TIM_InternalClockConfig)
 *fill*         0x080195dc        0x4 00000000
 .text.TIM_InternalClockConfig
                0x080195e0       0x3c /home/jon/dev_src/SEU-Detect-Correct/build/stm32f4xx_tim.o
                0x080195e0                TIM_InternalClockConfig
 *(.text.USART_SendBreak)
 *fill*         0x0801961c        0x4 00000000
 .text.USART_SendBreak
                0x08019620       0x3c /home/jon/dev_src/SEU-Detect-Correct/build/stm32f4xx_usart.o
                0x08019620                USART_SendBreak
 *(.text.USART_SendData)
 *fill*         0x0801965c        0x4 00000000
 .text.USART_SendData
                0x08019660       0x3c /home/jon/dev_src/SEU-Detect-Correct/build/stm32f4xx_usart.o
                0x08019660                USART_SendData
 *(.text.vTaskSetTaskNumber)
 *fill*         0x0801969c        0x4 00000000
 .text.vTaskSetTaskNumber
                0x080196a0       0x3c /home/jon/dev_src/SEU-Detect-Correct/build/tasks.o
                0x080196a0                vTaskSetTaskNumber
 *(.text.ADC_ClearFlag)
 *fill*         0x080196dc        0x4 00000000
 .text.ADC_ClearFlag
                0x080196e0       0x38 /home/jon/dev_src/SEU-Detect-Correct/build/stm32f4xx_adc.o
                0x080196e0                ADC_ClearFlag
 *(.text.ADC_DeInit)
 *fill*         0x08019718        0x8 00000000
 .text.ADC_DeInit
                0x08019720       0x38 /home/jon/dev_src/SEU-Detect-Correct/build/stm32f4xx_adc.o
                0x08019720                ADC_DeInit
 *(.text.ADC_SoftwareStartConv)
 *fill*         0x08019758        0x8 00000000
 .text.ADC_SoftwareStartConv
                0x08019760       0x38 /home/jon/dev_src/SEU-Detect-Correct/build/stm32f4xx_adc.o
                0x08019760                ADC_SoftwareStartConv
 *(.text.ADC_SoftwareStartInjectedConv)
 *fill*         0x08019798        0x8 00000000
 .text.ADC_SoftwareStartInjectedConv
                0x080197a0       0x38 /home/jon/dev_src/SEU-Detect-Correct/build/stm32f4xx_adc.o
                0x080197a0                ADC_SoftwareStartInjectedConv
 *(.text.DAC_DeInit)
 *fill*         0x080197d8        0x8 00000000
 .text.DAC_DeInit
                0x080197e0       0x38 /home/jon/dev_src/SEU-Detect-Correct/build/stm32f4xx_dac.o
                0x080197e0                DAC_DeInit
 *(.text.FLASH_SetLatency)
 *fill*         0x08019818        0x8 00000000
 .text.FLASH_SetLatency
                0x08019820       0x38 /home/jon/dev_src/SEU-Detect-Correct/build/stm32f4xx_flash.o
                0x08019820                FLASH_SetLatency
 *(.text.I2C_GetPEC)
 *fill*         0x08019858        0x8 00000000
 .text.I2C_GetPEC
                0x08019860       0x38 /home/jon/dev_src/SEU-Detect-Correct/build/stm32f4xx_i2c.o
                0x08019860                I2C_GetPEC
 *(.text.I2C_SendData)
 *fill*         0x08019898        0x8 00000000
 .text.I2C_SendData
                0x080198a0       0x38 /home/jon/dev_src/SEU-Detect-Correct/build/stm32f4xx_i2c.o
                0x080198a0                I2C_SendData
 *(.text.prvPortStartFirstTask)
 *fill*         0x080198d8        0x8 00000000
 .text.prvPortStartFirstTask
                0x080198e0       0x3c /home/jon/dev_src/SEU-Detect-Correct/build/port.o
 *(.text.RCC_BackupResetCmd)
 *fill*         0x0801991c        0x4 00000000
 .text.RCC_BackupResetCmd
                0x08019920       0x38 /home/jon/dev_src/SEU-Detect-Correct/build/stm32f4xx_rcc.o
                0x08019920                RCC_BackupResetCmd
 *(.text.RCC_ClearITPendingBit)
 *fill*         0x08019958        0x8 00000000
 .text.RCC_ClearITPendingBit
                0x08019960       0x38 /home/jon/dev_src/SEU-Detect-Correct/build/stm32f4xx_rcc.o
                0x08019960                RCC_ClearITPendingBit
 *(.text.RCC_ClockSecuritySystemCmd)
 *fill*         0x08019998        0x8 00000000
 .text.RCC_ClockSecuritySystemCmd
                0x080199a0       0x38 /home/jon/dev_src/SEU-Detect-Correct/build/stm32f4xx_rcc.o
                0x080199a0                RCC_ClockSecuritySystemCmd
 *(.text.RCC_HSICmd)
 *fill*         0x080199d8        0x8 00000000
 .text.RCC_HSICmd
                0x080199e0       0x38 /home/jon/dev_src/SEU-Detect-Correct/build/stm32f4xx_rcc.o
                0x080199e0                RCC_HSICmd
 *(.text.RCC_LSICmd)
 *fill*         0x08019a18        0x8 00000000
 .text.RCC_LSICmd
                0x08019a20       0x38 /home/jon/dev_src/SEU-Detect-Correct/build/stm32f4xx_rcc.o
                0x08019a20                RCC_LSICmd
 *(.text.RCC_PLLCmd)
 *fill*         0x08019a58        0x8 00000000
 .text.RCC_PLLCmd
                0x08019a60       0x38 /home/jon/dev_src/SEU-Detect-Correct/build/stm32f4xx_rcc.o
                0x08019a60                RCC_PLLCmd
 *(.text.RCC_PLLI2SCmd)
 *fill*         0x08019a98        0x8 00000000
 .text.RCC_PLLI2SCmd
                0x08019aa0       0x38 /home/jon/dev_src/SEU-Detect-Correct/build/stm32f4xx_rcc.o
                0x08019aa0                RCC_PLLI2SCmd
 *(.text.RCC_RTCCLKCmd)
 *fill*         0x08019ad8        0x8 00000000
 .text.RCC_RTCCLKCmd
                0x08019ae0       0x38 /home/jon/dev_src/SEU-Detect-Correct/build/stm32f4xx_rcc.o
                0x08019ae0                RCC_RTCCLKCmd
 *(.text.SPI_I2S_ClearFlag)
 *fill*         0x08019b18        0x8 00000000
 .text.SPI_I2S_ClearFlag
                0x08019b20       0x38 /home/jon/dev_src/SEU-Detect-Correct/build/stm32f4xx_spi.o
                0x08019b20                SPI_I2S_ClearFlag
 *(.text.__swrite)
 .text.__swrite
                0x08019b58       0x38 /home/jon/gcc-arm-none-eabi-5_2-2015q4/arm-none-eabi/lib/armv7e-m/fpu/libc.a(lib_a-stdio.o)
                0x08019b58                __swrite
 *(.text.SYSCFG_CompensationCellCmd)
 *fill*         0x08019b90       0x10 00000000
 .text.SYSCFG_CompensationCellCmd
                0x08019ba0       0x38 /home/jon/dev_src/SEU-Detect-Correct/build/stm32f4xx_syscfg.o
                0x08019ba0                SYSCFG_CompensationCellCmd
 *(.text.SYSCFG_DeInit)
 *fill*         0x08019bd8        0x8 00000000
 .text.SYSCFG_DeInit
                0x08019be0       0x38 /home/jon/dev_src/SEU-Detect-Correct/build/stm32f4xx_syscfg.o
                0x08019be0                SYSCFG_DeInit
 *(.text.SYSCFG_MemoryRemapConfig)
 *fill*         0x08019c18        0x8 00000000
 .text.SYSCFG_MemoryRemapConfig
                0x08019c20       0x38 /home/jon/dev_src/SEU-Detect-Correct/build/stm32f4xx_syscfg.o
                0x08019c20                SYSCFG_MemoryRemapConfig
 *(.text.TIM_ClearFlag)
 *fill*         0x08019c58        0x8 00000000
 .text.TIM_ClearFlag
                0x08019c60       0x38 /home/jon/dev_src/SEU-Detect-Correct/build/stm32f4xx_tim.o
                0x08019c60                TIM_ClearFlag
 *(.text.TIM_ClearITPendingBit)
 *fill*         0x08019c98        0x8 00000000
 .text.TIM_ClearITPendingBit
                0x08019ca0       0x38 /home/jon/dev_src/SEU-Detect-Correct/build/stm32f4xx_tim.o
                0x08019ca0                TIM_ClearITPendingBit
 *(.text.TIM_RemapConfig)
 *fill*         0x08019cd8        0x8 00000000
 .text.TIM_RemapConfig
                0x08019ce0       0x38 /home/jon/dev_src/SEU-Detect-Correct/build/stm32f4xx_tim.o
                0x08019ce0                TIM_RemapConfig
 *(.text.ucPortCountLeadingZeros)
 *fill*         0x08019d18        0x8 00000000
 .text.ucPortCountLeadingZeros
                0x08019d20       0x38 /home/jon/dev_src/SEU-Detect-Correct/build/tasks.o
 *(.text.USART_ClearFlag)
 *fill*         0x08019d58        0x8 00000000
 .text.USART_ClearFlag
                0x08019d60       0x38 /home/jon/dev_src/SEU-Detect-Correct/build/stm32f4xx_usart.o
                0x08019d60                USART_ClearFlag
 *(.text.USART_ReceiveData)
 *fill*         0x08019d98        0x8 00000000
 .text.USART_ReceiveData
                0x08019da0       0x38 /home/jon/dev_src/SEU-Detect-Correct/build/stm32f4xx_usart.o
                0x08019da0                USART_ReceiveData
 *(.text.xTaskGetCurrentTaskHandle)
 *fill*         0x08019dd8        0x8 00000000
 .text.xTaskGetCurrentTaskHandle
                0x08019de0       0x38 /home/jon/dev_src/SEU-Detect-Correct/build/tasks.o
                0x08019de0                xTaskGetCurrentTaskHandle
 *(.text.xTaskGetTickCount)
 *fill*         0x08019e18        0x8 00000000
 .text.xTaskGetTickCount
                0x08019e20       0x38 /home/jon/dev_src/SEU-Detect-Correct/build/tasks.o
                0x08019e20                xTaskGetTickCount
 *(.text.ADC_GetConversionValue)
 *fill*         0x08019e58        0x8 00000000
 .text.ADC_GetConversionValue
                0x08019e60       0x34 /home/jon/dev_src/SEU-Detect-Correct/build/stm32f4xx_adc.o
                0x08019e60                ADC_GetConversionValue
 *(.text.DMA_GetCurrDataCounter)
 *fill*         0x08019e94        0xc 00000000
 .text.DMA_GetCurrDataCounter
                0x08019ea0       0x34 /home/jon/dev_src/SEU-Detect-Correct/build/stm32f4xx_dma.o
                0x08019ea0                DMA_GetCurrDataCounter
 *(.text.DMA_SetCurrDataCounter)
 *fill*         0x08019ed4        0xc 00000000
 .text.DMA_SetCurrDataCounter
                0x08019ee0       0x34 /home/jon/dev_src/SEU-Detect-Correct/build/stm32f4xx_dma.o
                0x08019ee0                DMA_SetCurrDataCounter
 *(.text.EXTI_ClearFlag)
 *fill*         0x08019f14        0xc 00000000
 .text.EXTI_ClearFlag
                0x08019f20       0x34 /home/jon/dev_src/SEU-Detect-Correct/build/stm32f4xx_exti.o
                0x08019f20                EXTI_ClearFlag
 *(.text.EXTI_ClearITPendingBit)
 *fill*         0x08019f54        0xc 00000000
 .text.EXTI_ClearITPendingBit
                0x08019f60       0x34 /home/jon/dev_src/SEU-Detect-Correct/build/stm32f4xx_exti.o
                0x08019f60                EXTI_ClearITPendingBit
 *(.text.FLASH_ClearFlag)
 *fill*         0x08019f94        0xc 00000000
 .text.FLASH_ClearFlag
                0x08019fa0       0x34 /home/jon/dev_src/SEU-Detect-Correct/build/stm32f4xx_flash.o
                0x08019fa0                FLASH_ClearFlag
 *(.text.FLASH_DataCacheReset)
 *fill*         0x08019fd4        0xc 00000000
 .text.FLASH_DataCacheReset
                0x08019fe0       0x34 /home/jon/dev_src/SEU-Detect-Correct/build/stm32f4xx_flash.o
                0x08019fe0                FLASH_DataCacheReset
 *(.text.FLASH_InstructionCacheReset)
 *fill*         0x0801a014        0xc 00000000
 .text.FLASH_InstructionCacheReset
                0x0801a020       0x34 /home/jon/dev_src/SEU-Detect-Correct/build/stm32f4xx_flash.o
                0x0801a020                FLASH_InstructionCacheReset
 *(.text.FLASH_Lock)
 *fill*         0x0801a054        0xc 00000000
 .text.FLASH_Lock
                0x0801a060       0x34 /home/jon/dev_src/SEU-Detect-Correct/build/stm32f4xx_flash.o
                0x0801a060                FLASH_Lock
 *(.text.FLASH_OB_GetBOR)
 *fill*         0x0801a094        0xc 00000000
 .text.FLASH_OB_GetBOR
                0x0801a0a0       0x34 /home/jon/dev_src/SEU-Detect-Correct/build/stm32f4xx_flash.o
                0x0801a0a0                FLASH_OB_GetBOR
 *(.text.FLASH_OB_Lock)
 *fill*         0x0801a0d4        0xc 00000000
 .text.FLASH_OB_Lock
                0x0801a0e0       0x34 /home/jon/dev_src/SEU-Detect-Correct/build/stm32f4xx_flash.o
                0x0801a0e0                FLASH_OB_Lock
 *(.text.GPIO_ReadInputData)
 *fill*         0x0801a114        0xc 00000000
 .text.GPIO_ReadInputData
                0x0801a120       0x34 /home/jon/dev_src/SEU-Detect-Correct/build/stm32f4xx_gpio.o
                0x0801a120                GPIO_ReadInputData
 *(.text.GPIO_ReadOutputData)
 *fill*         0x0801a154        0xc 00000000
 .text.GPIO_ReadOutputData
                0x0801a160       0x34 /home/jon/dev_src/SEU-Detect-Correct/build/stm32f4xx_gpio.o
                0x0801a160                GPIO_ReadOutputData
 *(.text.GPIO_ResetBits)
 *fill*         0x0801a194        0xc 00000000
 .text.GPIO_ResetBits
                0x0801a1a0       0x34 /home/jon/dev_src/SEU-Detect-Correct/build/stm32f4xx_gpio.o
                0x0801a1a0                GPIO_ResetBits
 *(.text.GPIO_SetBits)
 *fill*         0x0801a1d4        0xc 00000000
 .text.GPIO_SetBits
                0x0801a1e0       0x34 /home/jon/dev_src/SEU-Detect-Correct/build/stm32f4xx_gpio.o
                0x0801a1e0                GPIO_SetBits
 *(.text.GPIO_Write)
 *fill*         0x0801a214        0xc 00000000
 .text.GPIO_Write
                0x0801a220       0x34 /home/jon/dev_src/SEU-Detect-Correct/build/stm32f4xx_gpio.o
                0x0801a220                GPIO_Write
 *(.text.I2C_ReceiveData)
 *fill*         0x0801a254        0xc 00000000
 .text.I2C_ReceiveData
                0x0801a260       0x34 /home/jon/dev_src/SEU-Detect-Correct/build/stm32f4xx_i2c.o
                0x0801a260                I2C_ReceiveData
 *(.text._lseek)
 *fill*         0x0801a294        0xc 00000000
 .text._lseek   0x0801a2a0       0x34 /home/jon/dev_src/SEU-Detect-Correct/build/syscalls.o
                0x0801a2a0                _lseek
 *(.text._open)
 *fill*         0x0801a2d4        0xc 00000000
 .text._open    0x0801a2e0       0x34 /home/jon/dev_src/SEU-Detect-Correct/build/syscalls.o
                0x0801a2e0                _open
 *(.text.pcTimerGetTimerName)
 *fill*         0x0801a314        0xc 00000000
 .text.pcTimerGetTimerName
                0x0801a320       0x34 /home/jon/dev_src/SEU-Detect-Correct/build/timers.o
                0x0801a320                pcTimerGetTimerName
 *(.text.prvTimerTask)
 *fill*         0x0801a354        0xc 00000000
 .text.prvTimerTask
                0x0801a360       0x34 /home/jon/dev_src/SEU-Detect-Correct/build/timers.o
 *(.text.pvTimerGetTimerID)
 *fill*         0x0801a394        0xc 00000000
 .text.pvTimerGetTimerID
                0x0801a3a0       0x34 /home/jon/dev_src/SEU-Detect-Correct/build/timers.o
                0x0801a3a0                pvTimerGetTimerID
 *(.text.RCC_ClearFlag)
 *fill*         0x0801a3d4        0xc 00000000
 .text.RCC_ClearFlag
                0x0801a3e0       0x34 /home/jon/dev_src/SEU-Detect-Correct/build/stm32f4xx_rcc.o
                0x0801a3e0                RCC_ClearFlag
 *(.text.RCC_GetSYSCLKSource)
 *fill*         0x0801a414        0xc 00000000
 .text.RCC_GetSYSCLKSource
                0x0801a420       0x34 /home/jon/dev_src/SEU-Detect-Correct/build/stm32f4xx_rcc.o
                0x0801a420                RCC_GetSYSCLKSource
 *(.text.RCC_I2SCLKConfig)
 *fill*         0x0801a454        0xc 00000000
 .text.RCC_I2SCLKConfig
                0x0801a460       0x34 /home/jon/dev_src/SEU-Detect-Correct/build/stm32f4xx_rcc.o
                0x0801a460                RCC_I2SCLKConfig
 *(.text.RNG_DeInit)
 *fill*         0x0801a494        0xc 00000000
 .text.RNG_DeInit
                0x0801a4a0       0x34 /home/jon/dev_src/SEU-Detect-Correct/build/stm32f4xx_rng.o
                0x0801a4a0                RNG_DeInit
 *(.text.SPI_GetCRCPolynomial)
 *fill*         0x0801a4d4        0xc 00000000
 .text.SPI_GetCRCPolynomial
                0x0801a4e0       0x34 /home/jon/dev_src/SEU-Detect-Correct/build/stm32f4xx_spi.o
                0x0801a4e0                SPI_GetCRCPolynomial
 *(.text.SPI_I2S_ReceiveData)
 *fill*         0x0801a514        0xc 00000000
 .text.SPI_I2S_ReceiveData
                0x0801a520       0x34 /home/jon/dev_src/SEU-Detect-Correct/build/stm32f4xx_spi.o
                0x0801a520                SPI_I2S_ReceiveData
 *(.text.SPI_I2S_SendData)
 *fill*         0x0801a554        0xc 00000000
 .text.SPI_I2S_SendData
                0x0801a560       0x34 /home/jon/dev_src/SEU-Detect-Correct/build/stm32f4xx_spi.o
                0x0801a560                SPI_I2S_SendData
 *(.text.SYSCFG_ETH_MediaInterfaceConfig)
 *fill*         0x0801a594        0xc 00000000
 .text.SYSCFG_ETH_MediaInterfaceConfig
                0x0801a5a0       0x34 /home/jon/dev_src/SEU-Detect-Correct/build/stm32f4xx_syscfg.o
                0x0801a5a0                SYSCFG_ETH_MediaInterfaceConfig
 *(.text.TIM_GenerateEvent)
 *fill*         0x0801a5d4        0xc 00000000
 .text.TIM_GenerateEvent
                0x0801a5e0       0x34 /home/jon/dev_src/SEU-Detect-Correct/build/stm32f4xx_tim.o
                0x0801a5e0                TIM_GenerateEvent
 *(.text.TIM_GetPrescaler)
 *fill*         0x0801a614        0xc 00000000
 .text.TIM_GetPrescaler
                0x0801a620       0x34 /home/jon/dev_src/SEU-Detect-Correct/build/stm32f4xx_tim.o
                0x0801a620                TIM_GetPrescaler
 *(.text.TIM_SetAutoreload)
 *fill*         0x0801a654        0xc 00000000
 .text.TIM_SetAutoreload
                0x0801a660       0x34 /home/jon/dev_src/SEU-Detect-Correct/build/stm32f4xx_tim.o
                0x0801a660                TIM_SetAutoreload
 *(.text.TIM_SetCompare1)
 *fill*         0x0801a694        0xc 00000000
 .text.TIM_SetCompare1
                0x0801a6a0       0x34 /home/jon/dev_src/SEU-Detect-Correct/build/stm32f4xx_tim.o
                0x0801a6a0                TIM_SetCompare1
 *(.text.TIM_SetCompare2)
 *fill*         0x0801a6d4        0xc 00000000
 .text.TIM_SetCompare2
                0x0801a6e0       0x34 /home/jon/dev_src/SEU-Detect-Correct/build/stm32f4xx_tim.o
                0x0801a6e0                TIM_SetCompare2
 *(.text.TIM_SetCompare3)
 *fill*         0x0801a714        0xc 00000000
 .text.TIM_SetCompare3
                0x0801a720       0x34 /home/jon/dev_src/SEU-Detect-Correct/build/stm32f4xx_tim.o
                0x0801a720                TIM_SetCompare3
 *(.text.TIM_SetCompare4)
 *fill*         0x0801a754        0xc 00000000
 .text.TIM_SetCompare4
                0x0801a760       0x34 /home/jon/dev_src/SEU-Detect-Correct/build/stm32f4xx_tim.o
                0x0801a760                TIM_SetCompare4
 *(.text.TIM_SetCounter)
 *fill*         0x0801a794        0xc 00000000
 .text.TIM_SetCounter
                0x0801a7a0       0x34 /home/jon/dev_src/SEU-Detect-Correct/build/stm32f4xx_tim.o
                0x0801a7a0                TIM_SetCounter
 *(.text.ucQueueGetQueueType)
 *fill*         0x0801a7d4        0xc 00000000
 .text.ucQueueGetQueueType
                0x0801a7e0       0x34 /home/jon/dev_src/SEU-Detect-Correct/build/queue.o
                0x0801a7e0                ucQueueGetQueueType
 *(.text.vEventGroupClearBitsCallback)
 *fill*         0x0801a814        0xc 00000000
 .text.vEventGroupClearBitsCallback
                0x0801a820       0x34 /home/jon/dev_src/SEU-Detect-Correct/build/event_groups.o
                0x0801a820                vEventGroupClearBitsCallback
 *(.text.vEventGroupSetBitsCallback)
 *fill*         0x0801a854        0xc 00000000
 .text.vEventGroupSetBitsCallback
                0x0801a860       0x34 /home/jon/dev_src/SEU-Detect-Correct/build/event_groups.o
                0x0801a860                vEventGroupSetBitsCallback
 *(.text.vQueueSetQueueNumber)
 *fill*         0x0801a894        0xc 00000000
 .text.vQueueSetQueueNumber
                0x0801a8a0       0x34 /home/jon/dev_src/SEU-Detect-Correct/build/queue.o
                0x0801a8a0                vQueueSetQueueNumber
 *(.text._close)
 *fill*         0x0801a8d4        0xc 00000000
 .text._close   0x0801a8e0       0x30 /home/jon/dev_src/SEU-Detect-Correct/build/syscalls.o
                0x0801a8e0                _close
 *(.text.__cyg_profile_func_enter)
 *fill*         0x0801a910       0x10 00000000
 .text.__cyg_profile_func_enter
                0x0801a920       0x30 build/trace_functions.o
                0x0801a920                __cyg_profile_func_enter
 *(.text.FLASH_OB_GetUser)
 *fill*         0x0801a950       0x10 00000000
 .text.FLASH_OB_GetUser
                0x0801a960       0x30 /home/jon/dev_src/SEU-Detect-Correct/build/stm32f4xx_flash.o
                0x0801a960                FLASH_OB_GetUser
 *(.text.FLASH_OB_GetWRP)
 *fill*         0x0801a990       0x10 00000000
 .text.FLASH_OB_GetWRP
                0x0801a9a0       0x30 /home/jon/dev_src/SEU-Detect-Correct/build/stm32f4xx_flash.o
                0x0801a9a0                FLASH_OB_GetWRP
 *(.text._isatty)
 *fill*         0x0801a9d0       0x10 00000000
 .text._isatty  0x0801a9e0       0x30 /home/jon/dev_src/SEU-Detect-Correct/build/syscalls.o
                0x0801a9e0                _isatty
 *(.text.Reset_Handler)
 .text.Reset_Handler
                0x0801aa10       0x44 /home/jon/dev_src/SEU-Detect-Correct/build/startup_stm32f4xx.o
                0x0801aa10                Reset_Handler
 *(.text.__sfmoreglue)
 .text.__sfmoreglue
                0x0801aa54       0x30 /home/jon/gcc-arm-none-eabi-5_2-2015q4/arm-none-eabi/lib/armv7e-m/fpu/libc.a(lib_a-findfp.o)
                0x0801aa54                __sfmoreglue
                0x0801aa86                . = (. + 0x2)
 *fill*         0x0801aa84        0x2 00000000
 *(.text.TIM_GetCapture1)
 *fill*         0x0801aa86       0x1a 00000000
 .text.TIM_GetCapture1
                0x0801aaa0       0x30 /home/jon/dev_src/SEU-Detect-Correct/build/stm32f4xx_tim.o
                0x0801aaa0                TIM_GetCapture1
 *(.text.TIM_GetCapture2)
 *fill*         0x0801aad0       0x10 00000000
 .text.TIM_GetCapture2
                0x0801aae0       0x30 /home/jon/dev_src/SEU-Detect-Correct/build/stm32f4xx_tim.o
                0x0801aae0                TIM_GetCapture2
 *(.text.TIM_GetCapture3)
 *fill*         0x0801ab10       0x10 00000000
 .text.TIM_GetCapture3
                0x0801ab20       0x30 /home/jon/dev_src/SEU-Detect-Correct/build/stm32f4xx_tim.o
                0x0801ab20                TIM_GetCapture3
 *(.text.TIM_GetCapture4)
 *fill*         0x0801ab50       0x10 00000000
 .text.TIM_GetCapture4
                0x0801ab60       0x30 /home/jon/dev_src/SEU-Detect-Correct/build/stm32f4xx_tim.o
                0x0801ab60                TIM_GetCapture4
 *(.text.TIM_GetCounter)
 *fill*         0x0801ab90       0x10 00000000
 .text.TIM_GetCounter
                0x0801aba0       0x30 /home/jon/dev_src/SEU-Detect-Correct/build/stm32f4xx_tim.o
                0x0801aba0                TIM_GetCounter
 *(.text.uxQueueGetQueueNumber)
 *fill*         0x0801abd0       0x10 00000000
 .text.uxQueueGetQueueNumber
                0x0801abe0       0x30 /home/jon/dev_src/SEU-Detect-Correct/build/queue.o
                0x0801abe0                uxQueueGetQueueNumber
 *(.text.vListInitialiseItem)
 *fill*         0x0801ac10       0x10 00000000
 .text.vListInitialiseItem
                0x0801ac20       0x30 /home/jon/dev_src/SEU-Detect-Correct/build/list.o
                0x0801ac20                vListInitialiseItem
 *(.text.vTaskSuspendAll)
 *fill*         0x0801ac50       0x10 00000000
 .text.vTaskSuspendAll
                0x0801ac60       0x30 /home/jon/dev_src/SEU-Detect-Correct/build/tasks.o
                0x0801ac60                vTaskSuspendAll
 *(.text._fflush_r)
 .text._fflush_r
                0x0801ac90       0x2c /home/jon/gcc-arm-none-eabi-5_2-2015q4/arm-none-eabi/lib/armv7e-m/fpu/libc.a(lib_a-fflush.o)
                0x0801ac90                _fflush_r
 *(.text._lseek_r)
 .text._lseek_r
                0x0801acbc       0x2c /home/jon/gcc-arm-none-eabi-5_2-2015q4/arm-none-eabi/lib/armv7e-m/fpu/libc.a(lib_a-lseekr.o)
                0x0801acbc                _lseek_r
 *(.text._read_r)
 .text._read_r  0x0801ace8       0x2c /home/jon/gcc-arm-none-eabi-5_2-2015q4/arm-none-eabi/lib/armv7e-m/fpu/libc.a(lib_a-readr.o)
                0x0801ace8                _read_r
 *(.text.RNG_GetRandomNumber)
 *fill*         0x0801ad14        0xc 00000000
 .text.RNG_GetRandomNumber
                0x0801ad20       0x2c /home/jon/dev_src/SEU-Detect-Correct/build/stm32f4xx_rng.o
                0x0801ad20                RNG_GetRandomNumber
 *(.text.uxTaskGetNumberOfTasks)
 *fill*         0x0801ad4c       0x14 00000000
 .text.uxTaskGetNumberOfTasks
                0x0801ad60       0x2c /home/jon/dev_src/SEU-Detect-Correct/build/tasks.o
                0x0801ad60                uxTaskGetNumberOfTasks
 *(.text.vPortEnableVFP)
 *fill*         0x0801ad8c       0x14 00000000
 .text.vPortEnableVFP
                0x0801ada0       0x30 /home/jon/dev_src/SEU-Detect-Correct/build/port.o
 *(.text.vTaskMissedYield)
 *fill*         0x0801add0       0x10 00000000
 .text.vTaskMissedYield
                0x0801ade0       0x2c /home/jon/dev_src/SEU-Detect-Correct/build/tasks.o
                0x0801ade0                vTaskMissedYield
 *(.text._write_r)
 .text._write_r
                0x0801ae0c       0x2c /home/jon/gcc-arm-none-eabi-5_2-2015q4/arm-none-eabi/lib/armv7e-m/fpu/libc.a(lib_a-writer.o)
                0x0801ae0c                _write_r
 *(.text.xPortGetFreeHeapSize)
 *fill*         0x0801ae38        0x8 00000000
 .text.xPortGetFreeHeapSize
                0x0801ae40       0x2c /home/jon/dev_src/SEU-Detect-Correct/build/heap_4.o
                0x0801ae40                xPortGetFreeHeapSize
 *(.text.xPortGetMinimumEverFreeHeapSize)
 *fill*         0x0801ae6c       0x14 00000000
 .text.xPortGetMinimumEverFreeHeapSize
                0x0801ae80       0x2c /home/jon/dev_src/SEU-Detect-Correct/build/heap_4.o
                0x0801ae80                xPortGetMinimumEverFreeHeapSize
 *(.text._fstat_r)
 .text._fstat_r
                0x0801aeac       0x28 /home/jon/gcc-arm-none-eabi-5_2-2015q4/arm-none-eabi/lib/armv7e-m/fpu/libc.a(lib_a-fstatr.o)
                0x0801aeac                _fstat_r
 *(.text._getpid)
 *fill*         0x0801aed4        0xc 00000000
 .text._getpid  0x0801aee0       0x28 /home/jon/dev_src/SEU-Detect-Correct/build/syscalls.o
                0x0801aee0                _getpid
 *(.text._close_r)
 .text._close_r
                0x0801af08       0x24 /home/jon/gcc-arm-none-eabi-5_2-2015q4/arm-none-eabi/lib/armv7e-m/fpu/libc.a(lib_a-closer.o)
                0x0801af08                _close_r
 *(.text.fflush)
 .text.fflush   0x0801af2c       0x24 /home/jon/gcc-arm-none-eabi-5_2-2015q4/arm-none-eabi/lib/armv7e-m/fpu/libc.a(lib_a-fflush.o)
                0x0801af2c                fflush
 *(.text._isatty_r)
 .text._isatty_r
                0x0801af50       0x24 /home/jon/gcc-arm-none-eabi-5_2-2015q4/arm-none-eabi/lib/armv7e-m/fpu/libc.a(lib_a-isattyr.o)
                0x0801af50                _isatty_r
 *(.text._sbrk_r)
 .text._sbrk_r  0x0801af74       0x24 /home/jon/gcc-arm-none-eabi-5_2-2015q4/arm-none-eabi/lib/armv7e-m/fpu/libc.a(lib_a-sbrkr.o)
                0x0801af74                _sbrk_r
 *(.text.__sread)
 .text.__sread  0x0801af98       0x24 /home/jon/gcc-arm-none-eabi-5_2-2015q4/arm-none-eabi/lib/armv7e-m/fpu/libc.a(lib_a-stdio.o)
                0x0801af98                __sread
                0x0801afbe                . = (. + 0x2)
 *fill*         0x0801afbc        0x2 00000000
 *(.text.vApplicationIdleHook)
 *fill*         0x0801afbe        0x2 00000000
 .text.vApplicationIdleHook
                0x0801afc0       0x24 /home/jon/dev_src/SEU-Detect-Correct/build/main.o
                0x0801afc0                vApplicationIdleHook
 *(.text.vApplicationTickHook)
 *fill*         0x0801afe4       0x1c 00000000
 .text.vApplicationTickHook
                0x0801b000       0x24 /home/jon/dev_src/SEU-Detect-Correct/build/main.o
                0x0801b000                vApplicationTickHook
 *(.text.vPortInitialiseBlocks)
 *fill*         0x0801b024       0x1c 00000000
 .text.vPortInitialiseBlocks
                0x0801b040       0x24 /home/jon/dev_src/SEU-Detect-Correct/build/heap_4.o
                0x0801b040                vPortInitialiseBlocks
 *(.text.cleanup_glue)
 .text.cleanup_glue
                0x0801b064       0x1c /home/jon/gcc-arm-none-eabi-5_2-2015q4/arm-none-eabi/lib/armv7e-m/fpu/libc.a(lib_a-reent.o)
                0x0801b064                cleanup_glue
                0x0801b082                . = (. + 0x2)
 *fill*         0x0801b080        0x2 00000000
 *(.text.__fp_lock_all)
 *fill*         0x0801b082        0x2 00000000
 .text.__fp_lock_all
                0x0801b084       0x14 /home/jon/gcc-arm-none-eabi-5_2-2015q4/arm-none-eabi/lib/armv7e-m/fpu/libc.a(lib_a-findfp.o)
                0x0801b084                __fp_lock_all
 *(.text.__fp_unlock_all)
 .text.__fp_unlock_all
                0x0801b098       0x14 /home/jon/gcc-arm-none-eabi-5_2-2015q4/arm-none-eabi/lib/armv7e-m/fpu/libc.a(lib_a-findfp.o)
                0x0801b098                __fp_unlock_all
 *(.text.fabsf)
 .text.fabsf    0x0801b0ac       0x10 /home/jon/gcc-arm-none-eabi-5_2-2015q4/arm-none-eabi/lib/armv7e-m/fpu/libm.a(lib_a-sf_fabs.o)
                0x0801b0ac                fabsf
                0x0801b0be                . = (. + 0x2)
 *fill*         0x0801b0bc        0x2 00000000
 *(.text.fclose)
 *fill*         0x0801b0be        0x2 00000000
 .text.fclose   0x0801b0c0       0x10 /home/jon/gcc-arm-none-eabi-5_2-2015q4/arm-none-eabi/lib/armv7e-m/fpu/libc.a(lib_a-fclose.o)
                0x0801b0c0                fclose
 *(.text.get_the_time)
 *fill*         0x0801b0d0       0x10 00000000
 .text.get_the_time
                0x0801b0e0       0x10 build/trace_functions.o
 *(.text.puts)
 .text.puts     0x0801b0f0       0x10 /home/jon/gcc-arm-none-eabi-5_2-2015q4/arm-none-eabi/lib/armv7e-m/fpu/libc.a(lib_a-puts.o)
                0x0801b0f0                puts
 *(.text._cleanup_r)
 .text._cleanup_r
                0x0801b100        0xc /home/jon/gcc-arm-none-eabi-5_2-2015q4/arm-none-eabi/lib/armv7e-m/fpu/libc.a(lib_a-findfp.o)
                0x0801b100                _cleanup_r
 *(.text.__errno)
 .text.__errno  0x0801b10c        0xc /home/jon/gcc-arm-none-eabi-5_2-2015q4/arm-none-eabi/lib/armv7e-m/fpu/libc.a(lib_a-errno.o)
                0x0801b10c                __errno
 *(.text.__sinit)
 .text.__sinit  0x0801b118        0xc /home/jon/gcc-arm-none-eabi-5_2-2015q4/arm-none-eabi/lib/armv7e-m/fpu/libc.a(lib_a-findfp.o)
                0x0801b118                __sinit
                0x0801b126                . = (. + 0x2)
 *fill*         0x0801b124        0x2 00000000
 *(.text.__sclose)
 *fill*         0x0801b126        0x2 00000000
 .text.__sclose
                0x0801b128        0x8 /home/jon/gcc-arm-none-eabi-5_2-2015q4/arm-none-eabi/lib/armv7e-m/fpu/libc.a(lib_a-stdio.o)
                0x0801b128                __sclose
 *(.text.ADC_IRQHandler)
                0x0801b132                . = (. + 0x2)
 *fill*         0x0801b130        0x2 00000000
 *(.text.BusFault_Handler)
                0x0801b134                . = (. + 0x2)
 *fill*         0x0801b132        0x2 00000000
 *(.text.CAN1_RX0_IRQHandler)
                0x0801b136                . = (. + 0x2)
 *fill*         0x0801b134        0x2 00000000
 *(.text.CAN1_RX1_IRQHandler)
                0x0801b138                . = (. + 0x2)
 *fill*         0x0801b136        0x2 00000000
 *(.text.CAN1_SCE_IRQHandler)
                0x0801b13a                . = (. + 0x2)
 *fill*         0x0801b138        0x2 00000000
 *(.text.CAN1_TX_IRQHandler)
                0x0801b13c                . = (. + 0x2)
 *fill*         0x0801b13a        0x2 00000000
 *(.text.CAN2_RX0_IRQHandler)
                0x0801b13e                . = (. + 0x2)
 *fill*         0x0801b13c        0x2 00000000
 *(.text.CAN2_RX1_IRQHandler)
                0x0801b140                . = (. + 0x2)
 *fill*         0x0801b13e        0x2 00000000
 *(.text.CAN2_SCE_IRQHandler)
                0x0801b142                . = (. + 0x2)
 *fill*         0x0801b140        0x2 00000000
 *(.text.CAN2_TX_IRQHandler)
                0x0801b144                . = (. + 0x2)
 *fill*         0x0801b142        0x2 00000000
 *(.text.CRYP_IRQHandler)
                0x0801b146                . = (. + 0x2)
 *fill*         0x0801b144        0x2 00000000
 *(.text.DCMI_IRQHandler)
                0x0801b148                . = (. + 0x2)
 *fill*         0x0801b146        0x2 00000000
 *(.text.DebugMon_Handler)
                0x0801b14a                . = (. + 0x2)
 *fill*         0x0801b148        0x2 00000000
 *(.text.DMA1_Stream0_IRQHandler)
                0x0801b14c                . = (. + 0x2)
 *fill*         0x0801b14a        0x2 00000000
 *(.text.DMA1_Stream1_IRQHandler)
                0x0801b14e                . = (. + 0x2)
 *fill*         0x0801b14c        0x2 00000000
 *(.text.DMA1_Stream2_IRQHandler)
                0x0801b150                . = (. + 0x2)
 *fill*         0x0801b14e        0x2 00000000
 *(.text.DMA1_Stream3_IRQHandler)
                0x0801b152                . = (. + 0x2)
 *fill*         0x0801b150        0x2 00000000
 *(.text.DMA1_Stream4_IRQHandler)
                0x0801b154                . = (. + 0x2)
 *fill*         0x0801b152        0x2 00000000
 *(.text.DMA1_Stream5_IRQHandler)
                0x0801b156                . = (. + 0x2)
 *fill*         0x0801b154        0x2 00000000
 *(.text.DMA1_Stream6_IRQHandler)
                0x0801b158                . = (. + 0x2)
 *fill*         0x0801b156        0x2 00000000
 *(.text.DMA1_Stream7_IRQHandler)
                0x0801b15a                . = (. + 0x2)
 *fill*         0x0801b158        0x2 00000000
 *(.text.DMA2_Stream0_IRQHandler)
                0x0801b15c                . = (. + 0x2)
 *fill*         0x0801b15a        0x2 00000000
 *(.text.DMA2_Stream1_IRQHandler)
                0x0801b15e                . = (. + 0x2)
 *fill*         0x0801b15c        0x2 00000000
 *(.text.DMA2_Stream2_IRQHandler)
                0x0801b160                . = (. + 0x2)
 *fill*         0x0801b15e        0x2 00000000
 *(.text.DMA2_Stream3_IRQHandler)
                0x0801b162                . = (. + 0x2)
 *fill*         0x0801b160        0x2 00000000
 *(.text.DMA2_Stream4_IRQHandler)
                0x0801b164                . = (. + 0x2)
 *fill*         0x0801b162        0x2 00000000
 *(.text.DMA2_Stream5_IRQHandler)
                0x0801b166                . = (. + 0x2)
 *fill*         0x0801b164        0x2 00000000
 *(.text.DMA2_Stream6_IRQHandler)
                0x0801b168                . = (. + 0x2)
 *fill*         0x0801b166        0x2 00000000
 *(.text.DMA2_Stream7_IRQHandler)
                0x0801b16a                . = (. + 0x2)
 *fill*         0x0801b168        0x2 00000000
 *(.text.ETH_IRQHandler)
                0x0801b16c                . = (. + 0x2)
 *fill*         0x0801b16a        0x2 00000000
 *(.text.ETH_WKUP_IRQHandler)
                0x0801b16e                . = (. + 0x2)
 *fill*         0x0801b16c        0x2 00000000
 *(.text.EXTI0_IRQHandler)
                0x0801b170                . = (. + 0x2)
 *fill*         0x0801b16e        0x2 00000000
 *(.text.EXTI15_10_IRQHandler)
                0x0801b172                . = (. + 0x2)
 *fill*         0x0801b170        0x2 00000000
 *(.text.EXTI1_IRQHandler)
                0x0801b174                . = (. + 0x2)
 *fill*         0x0801b172        0x2 00000000
 *(.text.EXTI2_IRQHandler)
                0x0801b176                . = (. + 0x2)
 *fill*         0x0801b174        0x2 00000000
 *(.text.EXTI3_IRQHandler)
                0x0801b178                . = (. + 0x2)
 *fill*         0x0801b176        0x2 00000000
 *(.text.EXTI4_IRQHandler)
                0x0801b17a                . = (. + 0x2)
 *fill*         0x0801b178        0x2 00000000
 *(.text.EXTI9_5_IRQHandler)
                0x0801b17c                . = (. + 0x2)
 *fill*         0x0801b17a        0x2 00000000
 *(.text.FLASH_IRQHandler)
                0x0801b17e                . = (. + 0x2)
 *fill*         0x0801b17c        0x2 00000000
 *(.text.__fp_lock)
 *fill*         0x0801b17e        0x2 00000000
 .text.__fp_lock
                0x0801b180        0x4 /home/jon/gcc-arm-none-eabi-5_2-2015q4/arm-none-eabi/lib/armv7e-m/fpu/libc.a(lib_a-findfp.o)
 *(.text.FPU_IRQHandler)
                0x0801b186                . = (. + 0x2)
 *fill*         0x0801b184        0x2 00000000
 *(.text.__fp_unlock)
 *fill*         0x0801b186        0x2 00000000
 .text.__fp_unlock
                0x0801b188        0x4 /home/jon/gcc-arm-none-eabi-5_2-2015q4/arm-none-eabi/lib/armv7e-m/fpu/libc.a(lib_a-findfp.o)
 *(.text.FSMC_IRQHandler)
                0x0801b18e                . = (. + 0x2)
 *fill*         0x0801b18c        0x2 00000000
 *(.text.HardFault_Handler)
                0x0801b190                . = (. + 0x2)
 *fill*         0x0801b18e        0x2 00000000
 *(.text.HASH_RNG_IRQHandler)
                0x0801b192                . = (. + 0x2)
 *fill*         0x0801b190        0x2 00000000
 *(.text.I2C1_ER_IRQHandler)
                0x0801b194                . = (. + 0x2)
 *fill*         0x0801b192        0x2 00000000
 *(.text.I2C1_EV_IRQHandler)
                0x0801b196                . = (. + 0x2)
 *fill*         0x0801b194        0x2 00000000
 *(.text.I2C2_ER_IRQHandler)
                0x0801b198                . = (. + 0x2)
 *fill*         0x0801b196        0x2 00000000
 *(.text.I2C2_EV_IRQHandler)
                0x0801b19a                . = (. + 0x2)
 *fill*         0x0801b198        0x2 00000000
 *(.text.I2C3_ER_IRQHandler)
                0x0801b19c                . = (. + 0x2)
 *fill*         0x0801b19a        0x2 00000000
 *(.text.I2C3_EV_IRQHandler)
                0x0801b19e                . = (. + 0x2)
 *fill*         0x0801b19c        0x2 00000000
 *(.text.__malloc_lock)
 *fill*         0x0801b19e        0x2 00000000
 .text.__malloc_lock
                0x0801b1a0        0x4 /home/jon/gcc-arm-none-eabi-5_2-2015q4/arm-none-eabi/lib/armv7e-m/fpu/libc.a(lib_a-mlock.o)
                0x0801b1a0                __malloc_lock
                0x0801b1a6                . = (. + 0x2)
 *fill*         0x0801b1a4        0x2 00000000
 *(.text.__malloc_unlock)
 *fill*         0x0801b1a6        0x2 00000000
 .text.__malloc_unlock
                0x0801b1a8        0x4 /home/jon/gcc-arm-none-eabi-5_2-2015q4/arm-none-eabi/lib/armv7e-m/fpu/libc.a(lib_a-mlock.o)
                0x0801b1a8                __malloc_unlock
                0x0801b1ae                . = (. + 0x2)
 *fill*         0x0801b1ac        0x2 00000000
 *(.text.MemManage_Handler)
                0x0801b1b0                . = (. + 0x2)
 *fill*         0x0801b1ae        0x2 00000000
 *(.text.NMI_Handler)
                0x0801b1b2                . = (. + 0x2)
 *fill*         0x0801b1b0        0x2 00000000
 *(.text.OTG_FS_IRQHandler)
                0x0801b1b4                . = (. + 0x2)
 *fill*         0x0801b1b2        0x2 00000000
 *(.text.OTG_FS_WKUP_IRQHandler)
                0x0801b1b6                . = (. + 0x2)
 *fill*         0x0801b1b4        0x2 00000000
 *(.text.OTG_HS_EP1_IN_IRQHandler)
                0x0801b1b8                . = (. + 0x2)
 *fill*         0x0801b1b6        0x2 00000000
 *(.text.OTG_HS_EP1_OUT_IRQHandler)
                0x0801b1ba                . = (. + 0x2)
 *fill*         0x0801b1b8        0x2 00000000
 *(.text.OTG_HS_IRQHandler)
                0x0801b1bc                . = (. + 0x2)
 *fill*         0x0801b1ba        0x2 00000000
 *(.text.OTG_HS_WKUP_IRQHandler)
                0x0801b1be                . = (. + 0x2)
 *fill*         0x0801b1bc        0x2 00000000
 *(.text.PVD_IRQHandler)
                0x0801b1c0                . = (. + 0x2)
 *fill*         0x0801b1be        0x2 00000000
 *(.text.RCC_IRQHandler)
                0x0801b1c2                . = (. + 0x2)
 *fill*         0x0801b1c0        0x2 00000000
 *(.text.RTC_Alarm_IRQHandler)
                0x0801b1c4                . = (. + 0x2)
 *fill*         0x0801b1c2        0x2 00000000
 *(.text.RTC_WKUP_IRQHandler)
                0x0801b1c6                . = (. + 0x2)
 *fill*         0x0801b1c4        0x2 00000000
 *(.text.SDIO_IRQHandler)
                0x0801b1c8                . = (. + 0x2)
 *fill*         0x0801b1c6        0x2 00000000
 *(.text.__seofread)
 .text.__seofread
                0x0801b1c8        0x4 /home/jon/gcc-arm-none-eabi-5_2-2015q4/arm-none-eabi/lib/armv7e-m/fpu/libc.a(lib_a-stdio.o)
                0x0801b1c8                __seofread
 *(.text.__sfp_lock_acquire)
 .text.__sfp_lock_acquire
                0x0801b1cc        0x4 /home/jon/gcc-arm-none-eabi-5_2-2015q4/arm-none-eabi/lib/armv7e-m/fpu/libc.a(lib_a-findfp.o)
                0x0801b1cc                __sfp_lock_acquire
                0x0801b1d2                . = (. + 0x2)
 *fill*         0x0801b1d0        0x2 00000000
 *(.text.__sfp_lock_release)
 *fill*         0x0801b1d2        0x2 00000000
 .text.__sfp_lock_release
                0x0801b1d4        0x4 /home/jon/gcc-arm-none-eabi-5_2-2015q4/arm-none-eabi/lib/armv7e-m/fpu/libc.a(lib_a-findfp.o)
                0x0801b1d4                __sfp_lock_release
                0x0801b1da                . = (. + 0x2)
 *fill*         0x0801b1d8        0x2 00000000
 *(.text.__sinit_lock_acquire)
 *fill*         0x0801b1da        0x2 00000000
 .text.__sinit_lock_acquire
                0x0801b1dc        0x4 /home/jon/gcc-arm-none-eabi-5_2-2015q4/arm-none-eabi/lib/armv7e-m/fpu/libc.a(lib_a-findfp.o)
                0x0801b1dc                __sinit_lock_acquire
                0x0801b1e2                . = (. + 0x2)
 *fill*         0x0801b1e0        0x2 00000000
 *(.text.__sinit_lock_release)
 *fill*         0x0801b1e2        0x2 00000000
 .text.__sinit_lock_release
                0x0801b1e4        0x4 /home/jon/gcc-arm-none-eabi-5_2-2015q4/arm-none-eabi/lib/armv7e-m/fpu/libc.a(lib_a-findfp.o)
                0x0801b1e4                __sinit_lock_release
                0x0801b1ea                . = (. + 0x2)
 *fill*         0x0801b1e8        0x2 00000000
 *(.text.SPI1_IRQHandler)
                0x0801b1ec                . = (. + 0x2)
 *fill*         0x0801b1ea        0x2 00000000
 *(.text.SPI2_IRQHandler)
                0x0801b1ee                . = (. + 0x2)
 *fill*         0x0801b1ec        0x2 00000000
 *(.text.SPI3_IRQHandler)
                0x0801b1f0                . = (. + 0x2)
 *fill*         0x0801b1ee        0x2 00000000
 *(.text.TAMP_STAMP_IRQHandler)
                0x0801b1f2                . = (. + 0x2)
 *fill*         0x0801b1f0        0x2 00000000
 *(.text.TIM1_BRK_TIM9_IRQHandler)
                0x0801b1f4                . = (. + 0x2)
 *fill*         0x0801b1f2        0x2 00000000
 *(.text.TIM1_CC_IRQHandler)
                0x0801b1f6                . = (. + 0x2)
 *fill*         0x0801b1f4        0x2 00000000
 *(.text.TIM1_TRG_COM_TIM11_IRQHandler)
                0x0801b1f8                . = (. + 0x2)
 *fill*         0x0801b1f6        0x2 00000000
 *(.text.TIM1_UP_TIM10_IRQHandler)
                0x0801b1fa                . = (. + 0x2)
 *fill*         0x0801b1f8        0x2 00000000
 *(.text.TIM2_IRQHandler)
                0x0801b1fc                . = (. + 0x2)
 *fill*         0x0801b1fa        0x2 00000000
 *(.text.TIM3_IRQHandler)
                0x0801b1fe                . = (. + 0x2)
 *fill*         0x0801b1fc        0x2 00000000
 *(.text.TIM4_IRQHandler)
                0x0801b200                . = (. + 0x2)
 *fill*         0x0801b1fe        0x2 00000000
 *(.text.TIM5_IRQHandler)
                0x0801b202                . = (. + 0x2)
 *fill*         0x0801b200        0x2 00000000
 *(.text.TIM6_DAC_IRQHandler)
                0x0801b204                . = (. + 0x2)
 *fill*         0x0801b202        0x2 00000000
 *(.text.TIM7_IRQHandler)
                0x0801b206                . = (. + 0x2)
 *fill*         0x0801b204        0x2 00000000
 *(.text.TIM8_BRK_TIM12_IRQHandler)
                0x0801b208                . = (. + 0x2)
 *fill*         0x0801b206        0x2 00000000
 *(.text.TIM8_CC_IRQHandler)
                0x0801b20a                . = (. + 0x2)
 *fill*         0x0801b208        0x2 00000000
 *(.text.TIM8_TRG_COM_TIM14_IRQHandler)
                0x0801b20c                . = (. + 0x2)
 *fill*         0x0801b20a        0x2 00000000
 *(.text.TIM8_UP_TIM13_IRQHandler)
                0x0801b20e                . = (. + 0x2)
 *fill*         0x0801b20c        0x2 00000000
 *(.text.UART4_IRQHandler)
                0x0801b210                . = (. + 0x2)
 *fill*         0x0801b20e        0x2 00000000
 *(.text.UART5_IRQHandler)
                0x0801b212                . = (. + 0x2)
 *fill*         0x0801b210        0x2 00000000
 *(.text.UsageFault_Handler)
                0x0801b214                . = (. + 0x2)
 *fill*         0x0801b212        0x2 00000000
 *(.text.USART1_IRQHandler)
                0x0801b216                . = (. + 0x2)
 *fill*         0x0801b214        0x2 00000000
 *(.text.USART2_IRQHandler)
                0x0801b218                . = (. + 0x2)
 *fill*         0x0801b216        0x2 00000000
 *(.text.USART3_IRQHandler)
                0x0801b21a                . = (. + 0x2)
 *fill*         0x0801b218        0x2 00000000
 *(.text.USART6_IRQHandler)
                0x0801b21c                . = (. + 0x2)
 *fill*         0x0801b21a        0x2 00000000
 *(.text.WWDG_IRQHandler)
                0x0801b21e                . = (. + 0x2)
 *fill*         0x0801b21c        0x2 00000000
                0x0801b220                . = ALIGN (0x4)
 *fill*         0x0801b21e        0x2 00000000
                0x0801b220                block_end = .
 *(.isr_vector)
 .isr_vector    0x0801b220      0x188 /home/jon/dev_src/SEU-Detect-Correct/build/startup_stm32f4xx.o
                0x0801b220                g_pfnVectors
 *(.rodata .rodata.*)
 .rodata        0x0801b3a8       0x39 /home/jon/dev_src/SEU-Detect-Correct/build/main.o
 *fill*         0x0801b3e1        0x3 00000000
 .rodata.pcInterruptPriorityRegisters
                0x0801b3e4        0x4 /home/jon/dev_src/SEU-Detect-Correct/build/port.o
 .rodata        0x0801b3e8        0x5 /home/jon/dev_src/SEU-Detect-Correct/build/tasks.o
 *fill*         0x0801b3ed        0x3 00000000
 .rodata.ucExpectedStackBytes.5483
                0x0801b3f0       0x14 /home/jon/dev_src/SEU-Detect-Correct/build/tasks.o
 .rodata        0x0801b404        0xd /home/jon/dev_src/SEU-Detect-Correct/build/timers.o
 *fill*         0x0801b411        0x3 00000000
 .rodata.xHeapStructSize
                0x0801b414        0x4 /home/jon/dev_src/SEU-Detect-Correct/build/heap_4.o
 .rodata.alpha_to
                0x0801b418     0x3400 /home/jon/dev_src/SEU-Detect-Correct/build/alpha_to.o
                0x0801b418                alpha_to
 .rodata.index_of
                0x0801e818     0x3400 /home/jon/dev_src/SEU-Detect-Correct/build/index_of.o
                0x0801e818                index_of
 .rodata.genpoly
                0x08021c18       0x22 /home/jon/dev_src/SEU-Detect-Correct/build/genpoly.o
                0x08021c18                genpoly
 *fill*         0x08021c3a        0x2 00000000
 .rodata.FlashSections
                0x08021c3c       0x30 build/trace_functions.o
                0x08021c3c                FlashSections
 .rodata.str1.4
                0x08021c6c        0x2 /home/jon/gcc-arm-none-eabi-5_2-2015q4/arm-none-eabi/lib/armv7e-m/fpu/libc.a(lib_a-impure.o)
 *fill*         0x08021c6e        0x2 00000000
 .rodata._global_impure_ptr
                0x08021c70        0x4 /home/jon/gcc-arm-none-eabi-5_2-2015q4/arm-none-eabi/lib/armv7e-m/fpu/libc.a(lib_a-impure.o)
                0x08021c70                _global_impure_ptr
 .rodata.str1.4
                0x08021c74        0x4 /home/jon/gcc-arm-none-eabi-5_2-2015q4/arm-none-eabi/lib/armv7e-m/fpu/libc.a(lib_a-puts.o)
                                  0x2 (size before relaxing)
 .rodata.npio2_hw
                0x08021c78       0x80 /home/jon/gcc-arm-none-eabi-5_2-2015q4/arm-none-eabi/lib/armv7e-m/fpu/libm.a(lib_a-ef_rem_pio2.o)
 .rodata.two_over_pi
                0x08021cf8      0x318 /home/jon/gcc-arm-none-eabi-5_2-2015q4/arm-none-eabi/lib/armv7e-m/fpu/libm.a(lib_a-ef_rem_pio2.o)
 .rodata.init_jk
                0x08022010        0xc /home/jon/gcc-arm-none-eabi-5_2-2015q4/arm-none-eabi/lib/armv7e-m/fpu/libm.a(lib_a-kf_rem_pio2.o)
 .rodata.PIo2   0x0802201c       0x2c /home/jon/gcc-arm-none-eabi-5_2-2015q4/arm-none-eabi/lib/armv7e-m/fpu/libm.a(lib_a-kf_rem_pio2.o)
 *(.gnu.linkonce.t.*)
 *(.glue_7)
 .glue_7        0x08022048        0x0 linker stubs
 *(.glue_7t)
 .glue_7t       0x08022048        0x0 linker stubs
 *(.gcc_except_table)
 *(.gnu.linkonce.r.*)
                0x08022048                . = ALIGN (0x4)
                0x08022048                _exit = .
                0x08022048                _etext = .
                0x08022048                _sidata = _etext
                [!provide]                PROVIDE (etext, .)
                0x08022048                _fini = .
 *(.fini)
 .text          0x08022048        0x0 /home/jon/dev_src/SEU-Detect-Correct/build/system_stm32f4xx.o
 .text          0x08022048        0x0 /home/jon/dev_src/SEU-Detect-Correct/build/main.o
 .text          0x08022048        0x0 /home/jon/dev_src/SEU-Detect-Correct/build/syscalls.o
 .text          0x08022048        0x0 /home/jon/dev_src/SEU-Detect-Correct/build/port.o
 .text          0x08022048        0x0 /home/jon/dev_src/SEU-Detect-Correct/build/list.o
 .text          0x08022048        0x0 /home/jon/dev_src/SEU-Detect-Correct/build/queue.o
 .text          0x08022048        0x0 /home/jon/dev_src/SEU-Detect-Correct/build/tasks.o
 .text          0x08022048        0x0 /home/jon/dev_src/SEU-Detect-Correct/build/event_groups.o
 .text          0x08022048        0x0 /home/jon/dev_src/SEU-Detect-Correct/build/timers.o
 .text          0x08022048        0x0 /home/jon/dev_src/SEU-Detect-Correct/build/heap_4.o
 .text          0x08022048        0x0 /home/jon/dev_src/SEU-Detect-Correct/build/stm32f4xx_syscfg.o
 .text          0x08022048        0x0 /home/jon/dev_src/SEU-Detect-Correct/build/misc.o
 .text          0x08022048        0x0 /home/jon/dev_src/SEU-Detect-Correct/build/stm32f4xx_adc.o
 .text          0x08022048        0x0 /home/jon/dev_src/SEU-Detect-Correct/build/stm32f4xx_dac.o
 .text          0x08022048        0x0 /home/jon/dev_src/SEU-Detect-Correct/build/stm32f4xx_dma.o
 .text          0x08022048        0x0 /home/jon/dev_src/SEU-Detect-Correct/build/stm32f4xx_exti.o
 .text          0x08022048        0x0 /home/jon/dev_src/SEU-Detect-Correct/build/stm32f4xx_flash.o
 .text          0x08022048        0x0 /home/jon/dev_src/SEU-Detect-Correct/build/stm32f4xx_gpio.o
 .text          0x08022048        0x0 /home/jon/dev_src/SEU-Detect-Correct/build/stm32f4xx_i2c.o
 .text          0x08022048        0x0 /home/jon/dev_src/SEU-Detect-Correct/build/stm32f4xx_rcc.o
 .text          0x08022048        0x0 /home/jon/dev_src/SEU-Detect-Correct/build/stm32f4xx_spi.o
 .text          0x08022048        0x0 /home/jon/dev_src/SEU-Detect-Correct/build/stm32f4xx_tim.o
 .text          0x08022048        0x0 /home/jon/dev_src/SEU-Detect-Correct/build/stm32f4xx_usart.o
 .text          0x08022048        0x0 /home/jon/dev_src/SEU-Detect-Correct/build/stm32f4xx_rng.o
 .text          0x08022048        0x0 /home/jon/dev_src/SEU-Detect-Correct/build/alpha_to.o
 .text          0x08022048        0x0 /home/jon/dev_src/SEU-Detect-Correct/build/index_of.o
 .text          0x08022048        0x0 /home/jon/dev_src/SEU-Detect-Correct/build/genpoly.o
 .text          0x08022048        0x0 build/trace_functions.o
 .text          0x08022048       0x14 /home/jon/dev_src/SEU-Detect-Correct/build/startup_stm32f4xx.o
 .text          0x0802205c        0x0 /home/jon/gcc-arm-none-eabi-5_2-2015q4/arm-none-eabi/lib/armv7e-m/fpu/libc.a(lib_a-errno.o)
 .text          0x0802205c        0x0 /home/jon/gcc-arm-none-eabi-5_2-2015q4/arm-none-eabi/lib/armv7e-m/fpu/libc.a(lib_a-impure.o)
 .text          0x0802205c        0x0 /home/jon/gcc-arm-none-eabi-5_2-2015q4/arm-none-eabi/lib/armv7e-m/fpu/libc.a(lib_a-memcmp.o)
 .text          0x0802205c      0x134 /home/jon/gcc-arm-none-eabi-5_2-2015q4/arm-none-eabi/lib/armv7e-m/fpu/libc.a(lib_a-memcpy.o)
                0x0802205c                memcpy
 .text          0x08022190        0x0 /home/jon/gcc-arm-none-eabi-5_2-2015q4/arm-none-eabi/lib/armv7e-m/fpu/libc.a(lib_a-memset.o)
 .text          0x08022190        0x0 /home/jon/gcc-arm-none-eabi-5_2-2015q4/arm-none-eabi/lib/armv7e-m/fpu/libc.a(lib_a-puts.o)
 *fill*         0x08022190       0x30 00000000
 .text          0x080221c0       0xdc /home/jon/gcc-arm-none-eabi-5_2-2015q4/arm-none-eabi/lib/armv7e-m/fpu/libc.a(lib_a-strlen.o)
                0x080221c0                strlen
 .text          0x0802229c        0x0 /home/jon/gcc-arm-none-eabi-5_2-2015q4/arm-none-eabi/lib/armv7e-m/fpu/libc.a(lib_a-findfp.o)
 .text          0x0802229c        0x0 /home/jon/gcc-arm-none-eabi-5_2-2015q4/arm-none-eabi/lib/armv7e-m/fpu/libc.a(lib_a-fvwrite.o)
 .text          0x0802229c        0x0 /home/jon/gcc-arm-none-eabi-5_2-2015q4/arm-none-eabi/lib/armv7e-m/fpu/libc.a(lib_a-fwalk.o)
 .text          0x0802229c        0x0 /home/jon/gcc-arm-none-eabi-5_2-2015q4/arm-none-eabi/lib/armv7e-m/fpu/libc.a(lib_a-mallocr.o)
 *fill*         0x0802229c        0x4 00000000
 .text          0x080222a0       0xa0 /home/jon/gcc-arm-none-eabi-5_2-2015q4/arm-none-eabi/lib/armv7e-m/fpu/libc.a(lib_a-memchr.o)
                0x080222a0                memchr
 .text          0x08022340        0x0 /home/jon/gcc-arm-none-eabi-5_2-2015q4/arm-none-eabi/lib/armv7e-m/fpu/libc.a(lib_a-memmove.o)
 .text          0x08022340        0x0 /home/jon/gcc-arm-none-eabi-5_2-2015q4/arm-none-eabi/lib/armv7e-m/fpu/libc.a(lib_a-mlock.o)
 .text          0x08022340        0x0 /home/jon/gcc-arm-none-eabi-5_2-2015q4/arm-none-eabi/lib/armv7e-m/fpu/libc.a(lib_a-reallocr.o)
 .text          0x08022340        0x0 /home/jon/gcc-arm-none-eabi-5_2-2015q4/arm-none-eabi/lib/armv7e-m/fpu/libc.a(lib_a-sbrkr.o)
 .text          0x08022340        0x0 /home/jon/gcc-arm-none-eabi-5_2-2015q4/arm-none-eabi/lib/armv7e-m/fpu/libc.a(lib_a-stdio.o)
 .text          0x08022340        0x0 /home/jon/gcc-arm-none-eabi-5_2-2015q4/arm-none-eabi/lib/armv7e-m/fpu/libc.a(lib_a-writer.o)
 .text          0x08022340        0x0 /home/jon/gcc-arm-none-eabi-5_2-2015q4/arm-none-eabi/lib/armv7e-m/fpu/libc.a(lib_a-wsetup.o)
 .text          0x08022340        0x0 /home/jon/gcc-arm-none-eabi-5_2-2015q4/arm-none-eabi/lib/armv7e-m/fpu/libc.a(lib_a-closer.o)
 .text          0x08022340        0x0 /home/jon/gcc-arm-none-eabi-5_2-2015q4/arm-none-eabi/lib/armv7e-m/fpu/libc.a(lib_a-fclose.o)
 .text          0x08022340        0x0 /home/jon/gcc-arm-none-eabi-5_2-2015q4/arm-none-eabi/lib/armv7e-m/fpu/libc.a(lib_a-fflush.o)
 .text          0x08022340        0x0 /home/jon/gcc-arm-none-eabi-5_2-2015q4/arm-none-eabi/lib/armv7e-m/fpu/libc.a(lib_a-freer.o)
 .text          0x08022340        0x0 /home/jon/gcc-arm-none-eabi-5_2-2015q4/arm-none-eabi/lib/armv7e-m/fpu/libc.a(lib_a-lseekr.o)
 .text          0x08022340        0x0 /home/jon/gcc-arm-none-eabi-5_2-2015q4/arm-none-eabi/lib/armv7e-m/fpu/libc.a(lib_a-makebuf.o)
 .text          0x08022340        0x0 /home/jon/gcc-arm-none-eabi-5_2-2015q4/arm-none-eabi/lib/armv7e-m/fpu/libc.a(lib_a-readr.o)
 .text          0x08022340        0x0 /home/jon/gcc-arm-none-eabi-5_2-2015q4/arm-none-eabi/lib/armv7e-m/fpu/libc.a(lib_a-reent.o)
 .text          0x08022340        0x0 /home/jon/gcc-arm-none-eabi-5_2-2015q4/arm-none-eabi/lib/armv7e-m/fpu/libc.a(lib_a-fstatr.o)
 .text          0x08022340        0x0 /home/jon/gcc-arm-none-eabi-5_2-2015q4/arm-none-eabi/lib/armv7e-m/fpu/libc.a(lib_a-isattyr.o)
 .text          0x08022340        0x0 /home/jon/gcc-arm-none-eabi-5_2-2015q4/arm-none-eabi/lib/armv7e-m/fpu/libm.a(lib_a-sf_sin.o)
 .text          0x08022340        0x0 /home/jon/gcc-arm-none-eabi-5_2-2015q4/arm-none-eabi/lib/armv7e-m/fpu/libm.a(lib_a-ef_rem_pio2.o)
 .text          0x08022340        0x0 /home/jon/gcc-arm-none-eabi-5_2-2015q4/arm-none-eabi/lib/armv7e-m/fpu/libm.a(lib_a-kf_cos.o)
 .text          0x08022340        0x0 /home/jon/gcc-arm-none-eabi-5_2-2015q4/arm-none-eabi/lib/armv7e-m/fpu/libm.a(lib_a-kf_rem_pio2.o)
 .text          0x08022340        0x0 /home/jon/gcc-arm-none-eabi-5_2-2015q4/arm-none-eabi/lib/armv7e-m/fpu/libm.a(lib_a-kf_sin.o)
 .text          0x08022340        0x0 /home/jon/gcc-arm-none-eabi-5_2-2015q4/arm-none-eabi/lib/armv7e-m/fpu/libm.a(lib_a-sf_fabs.o)
 .text          0x08022340        0x0 /home/jon/gcc-arm-none-eabi-5_2-2015q4/arm-none-eabi/lib/armv7e-m/fpu/libm.a(lib_a-sf_floor.o)
 .text          0x08022340        0x0 /home/jon/gcc-arm-none-eabi-5_2-2015q4/arm-none-eabi/lib/armv7e-m/fpu/libm.a(lib_a-sf_scalbn.o)
 .text          0x08022340        0x0 /home/jon/gcc-arm-none-eabi-5_2-2015q4/arm-none-eabi/lib/armv7e-m/fpu/libm.a(lib_a-sf_copysign.o)

.vfp11_veneer   0x08022340        0x0
 .vfp11_veneer  0x08022340        0x0 linker stubs

.v4_bx          0x08022340        0x0
 .v4_bx         0x08022340        0x0 linker stubs

.iplt           0x08022340        0x0
 .iplt          0x08022340        0x0 /home/jon/dev_src/SEU-Detect-Correct/build/system_stm32f4xx.o

.text.vPortRaiseBASEPRI
                0x08022340      0x1bc
 .text.vPortRaiseBASEPRI
                0x08022340       0x3c /home/jon/dev_src/SEU-Detect-Correct/build/main.o
 *fill*         0x0802237c        0x4 
 .text.vPortRaiseBASEPRI
                0x08022380       0x3c /home/jon/dev_src/SEU-Detect-Correct/build/port.o
 *fill*         0x080223bc        0x4 
 .text.vPortRaiseBASEPRI
                0x080223c0       0x3c /home/jon/dev_src/SEU-Detect-Correct/build/queue.o
 *fill*         0x080223fc        0x4 
 .text.vPortRaiseBASEPRI
                0x08022400       0x3c /home/jon/dev_src/SEU-Detect-Correct/build/tasks.o
 *fill*         0x0802243c        0x4 
 .text.vPortRaiseBASEPRI
                0x08022440       0x3c /home/jon/dev_src/SEU-Detect-Correct/build/event_groups.o
 *fill*         0x0802247c        0x4 
 .text.vPortRaiseBASEPRI
                0x08022480       0x3c /home/jon/dev_src/SEU-Detect-Correct/build/timers.o
 *fill*         0x080224bc        0x4 
 .text.vPortRaiseBASEPRI
                0x080224c0       0x3c /home/jon/dev_src/SEU-Detect-Correct/build/heap_4.o

.text.ulPortRaiseBASEPRI
                0x08022500      0x164
 .text.ulPortRaiseBASEPRI
                0x08022500       0x44 /home/jon/dev_src/SEU-Detect-Correct/build/port.o
 *fill*         0x08022544       0x1c 
 .text.ulPortRaiseBASEPRI
                0x08022560       0x44 /home/jon/dev_src/SEU-Detect-Correct/build/queue.o
 *fill*         0x080225a4       0x1c 
 .text.ulPortRaiseBASEPRI
                0x080225c0       0x44 /home/jon/dev_src/SEU-Detect-Correct/build/tasks.o
 *fill*         0x08022604       0x1c 
 .text.ulPortRaiseBASEPRI
                0x08022620       0x44 /home/jon/dev_src/SEU-Detect-Correct/build/event_groups.o

.text.vPortSetBASEPRI
                0x08022680       0xf0
 .text.vPortSetBASEPRI
                0x08022680       0x30 /home/jon/dev_src/SEU-Detect-Correct/build/port.o
 *fill*         0x080226b0       0x10 
 .text.vPortSetBASEPRI
                0x080226c0       0x30 /home/jon/dev_src/SEU-Detect-Correct/build/queue.o
 *fill*         0x080226f0       0x10 
 .text.vPortSetBASEPRI
                0x08022700       0x30 /home/jon/dev_src/SEU-Detect-Correct/build/tasks.o
 *fill*         0x08022730       0x10 
 .text.vPortSetBASEPRI
                0x08022740       0x30 /home/jon/dev_src/SEU-Detect-Correct/build/event_groups.o

.text.Default_Handler
                0x08022770        0x2
 .text.Default_Handler
                0x08022770        0x2 /home/jon/dev_src/SEU-Detect-Correct/build/startup_stm32f4xx.o
                0x08022770                RTC_Alarm_IRQHandler
                0x08022770                HASH_RNG_IRQHandler
                0x08022770                EXTI2_IRQHandler
                0x08022770                TIM8_CC_IRQHandler
                0x08022770                DebugMon_Handler
                0x08022770                TIM1_CC_IRQHandler
                0x08022770                DMA2_Stream5_IRQHandler
                0x08022770                HardFault_Handler
                0x08022770                DMA1_Stream5_IRQHandler
                0x08022770                PVD_IRQHandler
                0x08022770                SDIO_IRQHandler
                0x08022770                TAMP_STAMP_IRQHandler
                0x08022770                NMI_Handler
                0x08022770                CAN2_RX1_IRQHandler
                0x08022770                EXTI3_IRQHandler
                0x08022770                TIM8_TRG_COM_TIM14_IRQHandler
                0x08022770                TIM1_UP_TIM10_IRQHandler
                0x08022770                TIM8_UP_TIM13_IRQHandler
                0x08022770                I2C3_ER_IRQHandler
                0x08022770                EXTI0_IRQHandler
                0x08022770                I2C2_EV_IRQHandler
                0x08022770                DMA1_Stream2_IRQHandler
                0x08022770                CAN1_RX0_IRQHandler
                0x08022770                FPU_IRQHandler
                0x08022770                OTG_HS_WKUP_IRQHandler
                0x08022770                UsageFault_Handler
                0x08022770                CAN2_SCE_IRQHandler
                0x08022770                DMA2_Stream2_IRQHandler
                0x08022770                SPI1_IRQHandler
                0x08022770                TIM6_DAC_IRQHandler
                0x08022770                TIM1_BRK_TIM9_IRQHandler
                0x08022770                DCMI_IRQHandler
                0x08022770                CAN2_RX0_IRQHandler
                0x08022770                DMA2_Stream3_IRQHandler
                0x08022770                USART6_IRQHandler
                0x08022770                USART3_IRQHandler
                0x08022770                CRYP_IRQHandler
                0x08022770                CAN1_RX1_IRQHandler
                0x08022770                UART5_IRQHandler
                0x08022770                DMA2_Stream0_IRQHandler
                0x08022770                TIM4_IRQHandler
                0x08022770                I2C1_EV_IRQHandler
                0x08022770                DMA1_Stream6_IRQHandler
                0x08022770                DMA1_Stream1_IRQHandler
                0x08022770                UART4_IRQHandler
                0x08022770                TIM3_IRQHandler
                0x08022770                RCC_IRQHandler
                0x08022770                TIM8_BRK_TIM12_IRQHandler
                0x08022770                Default_Handler
                0x08022770                EXTI15_10_IRQHandler
                0x08022770                ADC_IRQHandler
                0x08022770                DMA1_Stream7_IRQHandler
                0x08022770                TIM7_IRQHandler
                0x08022770                CAN2_TX_IRQHandler
                0x08022770                TIM5_IRQHandler
                0x08022770                DMA2_Stream7_IRQHandler
                0x08022770                I2C3_EV_IRQHandler
                0x08022770                EXTI9_5_IRQHandler
                0x08022770                RTC_WKUP_IRQHandler
                0x08022770                ETH_WKUP_IRQHandler
                0x08022770                SPI2_IRQHandler
                0x08022770                OTG_HS_EP1_IN_IRQHandler
                0x08022770                MemManage_Handler
                0x08022770                DMA1_Stream0_IRQHandler
                0x08022770                CAN1_TX_IRQHandler
                0x08022770                EXTI4_IRQHandler
                0x08022770                FSMC_IRQHandler
                0x08022770                ETH_IRQHandler
                0x08022770                OTG_HS_EP1_OUT_IRQHandler
                0x08022770                WWDG_IRQHandler
                0x08022770                TIM2_IRQHandler
                0x08022770                OTG_FS_WKUP_IRQHandler
                0x08022770                TIM1_TRG_COM_TIM11_IRQHandler
                0x08022770                OTG_HS_IRQHandler
                0x08022770                EXTI1_IRQHandler
                0x08022770                USART2_IRQHandler
                0x08022770                I2C2_ER_IRQHandler
                0x08022770                DMA2_Stream1_IRQHandler
                0x08022770                CAN1_SCE_IRQHandler
                0x08022770                FLASH_IRQHandler
                0x08022770                DMA2_Stream4_IRQHandler
                0x08022770                BusFault_Handler
                0x08022770                USART1_IRQHandler
                0x08022770                OTG_FS_IRQHandler
                0x08022770                SPI3_IRQHandler
                0x08022770                DMA1_Stream4_IRQHandler
                0x08022770                I2C1_ER_IRQHandler
                0x08022770                DMA2_Stream6_IRQHandler
                0x08022770                DMA1_Stream3_IRQHandler

.rel.dyn        0x08022774        0x0
 .rel.iplt      0x08022774        0x0 /home/jon/dev_src/SEU-Detect-Correct/build/system_stm32f4xx.o

.data           0x20000000      0x86c
                0x20000000                . = ALIGN (0x4)
                0x20000000                _sdata = .
 *(.ramfunc .ramfunc.* .fastrun .fastrun.*)
 *(.data .data.*)
 .data          0x20000000        0x0 /home/jon/dev_src/SEU-Detect-Correct/build/system_stm32f4xx.o
 .data.SystemCoreClock
                0x20000000        0x4 /home/jon/dev_src/SEU-Detect-Correct/build/system_stm32f4xx.o
                0x20000000                SystemCoreClock
 .data.AHBPrescTable
                0x20000004       0x10 /home/jon/dev_src/SEU-Detect-Correct/build/system_stm32f4xx.o
                0x20000004                AHBPrescTable
 .data          0x20000014        0x0 /home/jon/dev_src/SEU-Detect-Correct/build/main.o
 .data          0x20000014        0x0 /home/jon/dev_src/SEU-Detect-Correct/build/syscalls.o
 .data          0x20000014        0x0 /home/jon/dev_src/SEU-Detect-Correct/build/port.o
 .data.uxCriticalNesting
                0x20000014        0x4 /home/jon/dev_src/SEU-Detect-Correct/build/port.o
 .data          0x20000018        0x0 /home/jon/dev_src/SEU-Detect-Correct/build/list.o
 .data          0x20000018        0x0 /home/jon/dev_src/SEU-Detect-Correct/build/queue.o
 .data          0x20000018        0x0 /home/jon/dev_src/SEU-Detect-Correct/build/tasks.o
 .data.xNextTaskUnblockTime
                0x20000018        0x4 /home/jon/dev_src/SEU-Detect-Correct/build/tasks.o
 .data          0x2000001c        0x0 /home/jon/dev_src/SEU-Detect-Correct/build/event_groups.o
 .data          0x2000001c        0x0 /home/jon/dev_src/SEU-Detect-Correct/build/timers.o
 .data          0x2000001c        0x0 /home/jon/dev_src/SEU-Detect-Correct/build/heap_4.o
 .data          0x2000001c        0x0 /home/jon/dev_src/SEU-Detect-Correct/build/stm32f4xx_syscfg.o
 .data          0x2000001c        0x0 /home/jon/dev_src/SEU-Detect-Correct/build/misc.o
 .data          0x2000001c        0x0 /home/jon/dev_src/SEU-Detect-Correct/build/stm32f4xx_adc.o
 .data          0x2000001c        0x0 /home/jon/dev_src/SEU-Detect-Correct/build/stm32f4xx_dac.o
 .data          0x2000001c        0x0 /home/jon/dev_src/SEU-Detect-Correct/build/stm32f4xx_dma.o
 .data          0x2000001c        0x0 /home/jon/dev_src/SEU-Detect-Correct/build/stm32f4xx_exti.o
 .data          0x2000001c        0x0 /home/jon/dev_src/SEU-Detect-Correct/build/stm32f4xx_flash.o
 .data          0x2000001c        0x0 /home/jon/dev_src/SEU-Detect-Correct/build/stm32f4xx_gpio.o
 .data          0x2000001c        0x0 /home/jon/dev_src/SEU-Detect-Correct/build/stm32f4xx_i2c.o
 .data          0x2000001c        0x0 /home/jon/dev_src/SEU-Detect-Correct/build/stm32f4xx_rcc.o
 .data.APBAHBPrescTable
                0x2000001c       0x10 /home/jon/dev_src/SEU-Detect-Correct/build/stm32f4xx_rcc.o
 .data          0x2000002c        0x0 /home/jon/dev_src/SEU-Detect-Correct/build/stm32f4xx_spi.o
 .data          0x2000002c        0x0 /home/jon/dev_src/SEU-Detect-Correct/build/stm32f4xx_tim.o
 .data          0x2000002c        0x0 /home/jon/dev_src/SEU-Detect-Correct/build/stm32f4xx_usart.o
 .data          0x2000002c        0x0 /home/jon/dev_src/SEU-Detect-Correct/build/stm32f4xx_rng.o
 .data          0x2000002c        0x0 /home/jon/dev_src/SEU-Detect-Correct/build/alpha_to.o
 .data          0x2000002c        0x0 /home/jon/dev_src/SEU-Detect-Correct/build/index_of.o
 .data          0x2000002c        0x0 /home/jon/dev_src/SEU-Detect-Correct/build/genpoly.o
 .data          0x2000002c        0x0 build/trace_functions.o
 .data          0x2000002c        0x0 /home/jon/dev_src/SEU-Detect-Correct/build/startup_stm32f4xx.o
 .data          0x2000002c        0x0 /home/jon/gcc-arm-none-eabi-5_2-2015q4/arm-none-eabi/lib/armv7e-m/fpu/libc.a(lib_a-errno.o)
 .data          0x2000002c        0x0 /home/jon/gcc-arm-none-eabi-5_2-2015q4/arm-none-eabi/lib/armv7e-m/fpu/libc.a(lib_a-impure.o)
 *fill*         0x2000002c        0x4 
 .data.impure_data
                0x20000030      0x428 /home/jon/gcc-arm-none-eabi-5_2-2015q4/arm-none-eabi/lib/armv7e-m/fpu/libc.a(lib_a-impure.o)
 .data._impure_ptr
                0x20000458        0x4 /home/jon/gcc-arm-none-eabi-5_2-2015q4/arm-none-eabi/lib/armv7e-m/fpu/libc.a(lib_a-impure.o)
                0x20000458                _impure_ptr
 .data          0x2000045c        0x0 /home/jon/gcc-arm-none-eabi-5_2-2015q4/arm-none-eabi/lib/armv7e-m/fpu/libc.a(lib_a-memcmp.o)
 .data          0x2000045c        0x0 /home/jon/gcc-arm-none-eabi-5_2-2015q4/arm-none-eabi/lib/armv7e-m/fpu/libc.a(lib_a-memcpy.o)
 .data          0x2000045c        0x0 /home/jon/gcc-arm-none-eabi-5_2-2015q4/arm-none-eabi/lib/armv7e-m/fpu/libc.a(lib_a-memset.o)
 .data          0x2000045c        0x0 /home/jon/gcc-arm-none-eabi-5_2-2015q4/arm-none-eabi/lib/armv7e-m/fpu/libc.a(lib_a-puts.o)
 .data          0x2000045c        0x0 /home/jon/gcc-arm-none-eabi-5_2-2015q4/arm-none-eabi/lib/armv7e-m/fpu/libc.a(lib_a-strlen.o)
 .data          0x2000045c        0x0 /home/jon/gcc-arm-none-eabi-5_2-2015q4/arm-none-eabi/lib/armv7e-m/fpu/libc.a(lib_a-findfp.o)
 .data          0x2000045c        0x0 /home/jon/gcc-arm-none-eabi-5_2-2015q4/arm-none-eabi/lib/armv7e-m/fpu/libc.a(lib_a-fvwrite.o)
 .data          0x2000045c        0x0 /home/jon/gcc-arm-none-eabi-5_2-2015q4/arm-none-eabi/lib/armv7e-m/fpu/libc.a(lib_a-fwalk.o)
 .data          0x2000045c        0x0 /home/jon/gcc-arm-none-eabi-5_2-2015q4/arm-none-eabi/lib/armv7e-m/fpu/libc.a(lib_a-mallocr.o)
 .data.__malloc_av_
                0x2000045c      0x408 /home/jon/gcc-arm-none-eabi-5_2-2015q4/arm-none-eabi/lib/armv7e-m/fpu/libc.a(lib_a-mallocr.o)
                0x2000045c                __malloc_av_
 .data.__malloc_trim_threshold
                0x20000864        0x4 /home/jon/gcc-arm-none-eabi-5_2-2015q4/arm-none-eabi/lib/armv7e-m/fpu/libc.a(lib_a-mallocr.o)
                0x20000864                __malloc_trim_threshold
 .data.__malloc_sbrk_base
                0x20000868        0x4 /home/jon/gcc-arm-none-eabi-5_2-2015q4/arm-none-eabi/lib/armv7e-m/fpu/libc.a(lib_a-mallocr.o)
                0x20000868                __malloc_sbrk_base
 .data          0x2000086c        0x0 /home/jon/gcc-arm-none-eabi-5_2-2015q4/arm-none-eabi/lib/armv7e-m/fpu/libc.a(lib_a-memchr.o)
 .data          0x2000086c        0x0 /home/jon/gcc-arm-none-eabi-5_2-2015q4/arm-none-eabi/lib/armv7e-m/fpu/libc.a(lib_a-memmove.o)
 .data          0x2000086c        0x0 /home/jon/gcc-arm-none-eabi-5_2-2015q4/arm-none-eabi/lib/armv7e-m/fpu/libc.a(lib_a-mlock.o)
 .data          0x2000086c        0x0 /home/jon/gcc-arm-none-eabi-5_2-2015q4/arm-none-eabi/lib/armv7e-m/fpu/libc.a(lib_a-reallocr.o)
 .data          0x2000086c        0x0 /home/jon/gcc-arm-none-eabi-5_2-2015q4/arm-none-eabi/lib/armv7e-m/fpu/libc.a(lib_a-sbrkr.o)
 .data          0x2000086c        0x0 /home/jon/gcc-arm-none-eabi-5_2-2015q4/arm-none-eabi/lib/armv7e-m/fpu/libc.a(lib_a-stdio.o)
 .data          0x2000086c        0x0 /home/jon/gcc-arm-none-eabi-5_2-2015q4/arm-none-eabi/lib/armv7e-m/fpu/libc.a(lib_a-writer.o)
 .data          0x2000086c        0x0 /home/jon/gcc-arm-none-eabi-5_2-2015q4/arm-none-eabi/lib/armv7e-m/fpu/libc.a(lib_a-wsetup.o)
 .data          0x2000086c        0x0 /home/jon/gcc-arm-none-eabi-5_2-2015q4/arm-none-eabi/lib/armv7e-m/fpu/libc.a(lib_a-closer.o)
 .data          0x2000086c        0x0 /home/jon/gcc-arm-none-eabi-5_2-2015q4/arm-none-eabi/lib/armv7e-m/fpu/libc.a(lib_a-fclose.o)
 .data          0x2000086c        0x0 /home/jon/gcc-arm-none-eabi-5_2-2015q4/arm-none-eabi/lib/armv7e-m/fpu/libc.a(lib_a-fflush.o)
 .data          0x2000086c        0x0 /home/jon/gcc-arm-none-eabi-5_2-2015q4/arm-none-eabi/lib/armv7e-m/fpu/libc.a(lib_a-freer.o)
 .data          0x2000086c        0x0 /home/jon/gcc-arm-none-eabi-5_2-2015q4/arm-none-eabi/lib/armv7e-m/fpu/libc.a(lib_a-lseekr.o)
 .data          0x2000086c        0x0 /home/jon/gcc-arm-none-eabi-5_2-2015q4/arm-none-eabi/lib/armv7e-m/fpu/libc.a(lib_a-makebuf.o)
 .data          0x2000086c        0x0 /home/jon/gcc-arm-none-eabi-5_2-2015q4/arm-none-eabi/lib/armv7e-m/fpu/libc.a(lib_a-readr.o)
 .data          0x2000086c        0x0 /home/jon/gcc-arm-none-eabi-5_2-2015q4/arm-none-eabi/lib/armv7e-m/fpu/libc.a(lib_a-reent.o)
 .data          0x2000086c        0x0 /home/jon/gcc-arm-none-eabi-5_2-2015q4/arm-none-eabi/lib/armv7e-m/fpu/libc.a(lib_a-fstatr.o)
 .data          0x2000086c        0x0 /home/jon/gcc-arm-none-eabi-5_2-2015q4/arm-none-eabi/lib/armv7e-m/fpu/libc.a(lib_a-isattyr.o)
 .data          0x2000086c        0x0 /home/jon/gcc-arm-none-eabi-5_2-2015q4/arm-none-eabi/lib/armv7e-m/fpu/libm.a(lib_a-sf_sin.o)
 .data          0x2000086c        0x0 /home/jon/gcc-arm-none-eabi-5_2-2015q4/arm-none-eabi/lib/armv7e-m/fpu/libm.a(lib_a-ef_rem_pio2.o)
 .data          0x2000086c        0x0 /home/jon/gcc-arm-none-eabi-5_2-2015q4/arm-none-eabi/lib/armv7e-m/fpu/libm.a(lib_a-kf_cos.o)
 .data          0x2000086c        0x0 /home/jon/gcc-arm-none-eabi-5_2-2015q4/arm-none-eabi/lib/armv7e-m/fpu/libm.a(lib_a-kf_rem_pio2.o)
 .data          0x2000086c        0x0 /home/jon/gcc-arm-none-eabi-5_2-2015q4/arm-none-eabi/lib/armv7e-m/fpu/libm.a(lib_a-kf_sin.o)
 .data          0x2000086c        0x0 /home/jon/gcc-arm-none-eabi-5_2-2015q4/arm-none-eabi/lib/armv7e-m/fpu/libm.a(lib_a-sf_fabs.o)
 .data          0x2000086c        0x0 /home/jon/gcc-arm-none-eabi-5_2-2015q4/arm-none-eabi/lib/armv7e-m/fpu/libm.a(lib_a-sf_floor.o)
 .data          0x2000086c        0x0 /home/jon/gcc-arm-none-eabi-5_2-2015q4/arm-none-eabi/lib/armv7e-m/fpu/libm.a(lib_a-sf_scalbn.o)
 .data          0x2000086c        0x0 /home/jon/gcc-arm-none-eabi-5_2-2015q4/arm-none-eabi/lib/armv7e-m/fpu/libm.a(lib_a-sf_copysign.o)
 *(.gnu.linkonce.d.*)
                0x2000086c                . = ALIGN (0x4)
                0x2000086c                _edata = .

.igot.plt       0x2000086c        0x0
 .igot.plt      0x2000086c        0x0 /home/jon/dev_src/SEU-Detect-Correct/build/system_stm32f4xx.o

.ARM.extab      0x2000086c        0x0
 *(.ARM.extab*)
                0x2000086c                __exidx_start = .

.ARM.exidx      0x2000086c        0x0
 *(.ARM.exidx*)
                0x2000086c                __exidx_end = .

.bss            0x2000086c    0x12dec
                0x2000086c                . = ALIGN (0x4)
                0x2000086c                _sbss = .
                0x2000086c                __bss_start__ = _sbss
 *(.bss .bss.*)
 .bss           0x2000086c        0x0 /home/jon/dev_src/SEU-Detect-Correct/build/system_stm32f4xx.o
 .bss           0x2000086c        0x0 /home/jon/dev_src/SEU-Detect-Correct/build/main.o
 .bss           0x2000086c        0x0 /home/jon/dev_src/SEU-Detect-Correct/build/syscalls.o
 .bss.heap_end.9157
                0x2000086c        0x4 /home/jon/dev_src/SEU-Detect-Correct/build/syscalls.o
 .bss           0x20000870        0x0 /home/jon/dev_src/SEU-Detect-Correct/build/port.o
 .bss.ucMaxSysCallPriority
                0x20000870        0x1 /home/jon/dev_src/SEU-Detect-Correct/build/port.o
 *fill*         0x20000871        0x3 
 .bss.ulMaxPRIGROUPValue
                0x20000874        0x4 /home/jon/dev_src/SEU-Detect-Correct/build/port.o
 .bss           0x20000878        0x0 /home/jon/dev_src/SEU-Detect-Correct/build/list.o
 .bss           0x20000878        0x0 /home/jon/dev_src/SEU-Detect-Correct/build/queue.o
 .bss           0x20000878        0x0 /home/jon/dev_src/SEU-Detect-Correct/build/tasks.o
 .bss.pxCurrentTCB
                0x20000878        0x4 /home/jon/dev_src/SEU-Detect-Correct/build/tasks.o
                0x20000878                pxCurrentTCB
 .bss.pxReadyTasksLists
                0x2000087c       0x64 /home/jon/dev_src/SEU-Detect-Correct/build/tasks.o
 .bss.xDelayedTaskList1
                0x200008e0       0x14 /home/jon/dev_src/SEU-Detect-Correct/build/tasks.o
 .bss.xDelayedTaskList2
                0x200008f4       0x14 /home/jon/dev_src/SEU-Detect-Correct/build/tasks.o
 .bss.pxDelayedTaskList
                0x20000908        0x4 /home/jon/dev_src/SEU-Detect-Correct/build/tasks.o
 .bss.pxOverflowDelayedTaskList
                0x2000090c        0x4 /home/jon/dev_src/SEU-Detect-Correct/build/tasks.o
 .bss.xPendingReadyList
                0x20000910       0x14 /home/jon/dev_src/SEU-Detect-Correct/build/tasks.o
 .bss.xTasksWaitingTermination
                0x20000924       0x14 /home/jon/dev_src/SEU-Detect-Correct/build/tasks.o
 .bss.uxTasksDeleted
                0x20000938        0x4 /home/jon/dev_src/SEU-Detect-Correct/build/tasks.o
 .bss.xSuspendedTaskList
                0x2000093c       0x14 /home/jon/dev_src/SEU-Detect-Correct/build/tasks.o
 .bss.uxCurrentNumberOfTasks
                0x20000950        0x4 /home/jon/dev_src/SEU-Detect-Correct/build/tasks.o
 .bss.xTickCount
                0x20000954        0x4 /home/jon/dev_src/SEU-Detect-Correct/build/tasks.o
 .bss.uxTopReadyPriority
                0x20000958        0x4 /home/jon/dev_src/SEU-Detect-Correct/build/tasks.o
 .bss.xSchedulerRunning
                0x2000095c        0x4 /home/jon/dev_src/SEU-Detect-Correct/build/tasks.o
 .bss.uxPendedTicks
                0x20000960        0x4 /home/jon/dev_src/SEU-Detect-Correct/build/tasks.o
 .bss.xYieldPending
                0x20000964        0x4 /home/jon/dev_src/SEU-Detect-Correct/build/tasks.o
 .bss.xNumOfOverflows
                0x20000968        0x4 /home/jon/dev_src/SEU-Detect-Correct/build/tasks.o
 .bss.uxTaskNumber
                0x2000096c        0x4 /home/jon/dev_src/SEU-Detect-Correct/build/tasks.o
 .bss.uxSchedulerSuspended
                0x20000970        0x4 /home/jon/dev_src/SEU-Detect-Correct/build/tasks.o
 .bss           0x20000974        0x0 /home/jon/dev_src/SEU-Detect-Correct/build/event_groups.o
 .bss           0x20000974        0x0 /home/jon/dev_src/SEU-Detect-Correct/build/timers.o
 .bss.xActiveTimerList1
                0x20000974       0x14 /home/jon/dev_src/SEU-Detect-Correct/build/timers.o
 .bss.xActiveTimerList2
                0x20000988       0x14 /home/jon/dev_src/SEU-Detect-Correct/build/timers.o
 .bss.pxCurrentTimerList
                0x2000099c        0x4 /home/jon/dev_src/SEU-Detect-Correct/build/timers.o
 .bss.pxOverflowTimerList
                0x200009a0        0x4 /home/jon/dev_src/SEU-Detect-Correct/build/timers.o
 .bss.xTimerQueue
                0x200009a4        0x4 /home/jon/dev_src/SEU-Detect-Correct/build/timers.o
 .bss.xLastTime.5330
                0x200009a8        0x4 /home/jon/dev_src/SEU-Detect-Correct/build/timers.o
 .bss           0x200009ac        0x0 /home/jon/dev_src/SEU-Detect-Correct/build/heap_4.o
 .bss.ucHeap    0x200009ac    0x12c00 /home/jon/dev_src/SEU-Detect-Correct/build/heap_4.o
 .bss.xStart    0x200135ac        0x8 /home/jon/dev_src/SEU-Detect-Correct/build/heap_4.o
 .bss.pxEnd     0x200135b4        0x4 /home/jon/dev_src/SEU-Detect-Correct/build/heap_4.o
 .bss.xFreeBytesRemaining
                0x200135b8        0x4 /home/jon/dev_src/SEU-Detect-Correct/build/heap_4.o
 .bss.xMinimumEverFreeBytesRemaining
                0x200135bc        0x4 /home/jon/dev_src/SEU-Detect-Correct/build/heap_4.o
 .bss.xBlockAllocatedBit
                0x200135c0        0x4 /home/jon/dev_src/SEU-Detect-Correct/build/heap_4.o
 .bss           0x200135c4        0x0 /home/jon/dev_src/SEU-Detect-Correct/build/stm32f4xx_syscfg.o
 .bss           0x200135c4        0x0 /home/jon/dev_src/SEU-Detect-Correct/build/misc.o
 .bss           0x200135c4        0x0 /home/jon/dev_src/SEU-Detect-Correct/build/stm32f4xx_adc.o
 .bss           0x200135c4        0x0 /home/jon/dev_src/SEU-Detect-Correct/build/stm32f4xx_dac.o
 .bss           0x200135c4        0x0 /home/jon/dev_src/SEU-Detect-Correct/build/stm32f4xx_dma.o
 .bss           0x200135c4        0x0 /home/jon/dev_src/SEU-Detect-Correct/build/stm32f4xx_exti.o
 .bss           0x200135c4        0x0 /home/jon/dev_src/SEU-Detect-Correct/build/stm32f4xx_flash.o
 .bss           0x200135c4        0x0 /home/jon/dev_src/SEU-Detect-Correct/build/stm32f4xx_gpio.o
 .bss           0x200135c4        0x0 /home/jon/dev_src/SEU-Detect-Correct/build/stm32f4xx_i2c.o
 .bss           0x200135c4        0x0 /home/jon/dev_src/SEU-Detect-Correct/build/stm32f4xx_rcc.o
 .bss           0x200135c4        0x0 /home/jon/dev_src/SEU-Detect-Correct/build/stm32f4xx_spi.o
 .bss           0x200135c4        0x0 /home/jon/dev_src/SEU-Detect-Correct/build/stm32f4xx_tim.o
 .bss           0x200135c4        0x0 /home/jon/dev_src/SEU-Detect-Correct/build/stm32f4xx_usart.o
 .bss           0x200135c4        0x0 /home/jon/dev_src/SEU-Detect-Correct/build/stm32f4xx_rng.o
 .bss           0x200135c4        0x0 /home/jon/dev_src/SEU-Detect-Correct/build/alpha_to.o
 .bss           0x200135c4        0x0 /home/jon/dev_src/SEU-Detect-Correct/build/index_of.o
 .bss           0x200135c4        0x0 /home/jon/dev_src/SEU-Detect-Correct/build/genpoly.o
 .bss           0x200135c4        0x0 build/trace_functions.o
 .bss           0x200135c4        0x0 /home/jon/dev_src/SEU-Detect-Correct/build/startup_stm32f4xx.o
 .bss           0x200135c4        0x0 /home/jon/gcc-arm-none-eabi-5_2-2015q4/arm-none-eabi/lib/armv7e-m/fpu/libc.a(lib_a-errno.o)
 .bss           0x200135c4        0x0 /home/jon/gcc-arm-none-eabi-5_2-2015q4/arm-none-eabi/lib/armv7e-m/fpu/libc.a(lib_a-impure.o)
 .bss           0x200135c4        0x0 /home/jon/gcc-arm-none-eabi-5_2-2015q4/arm-none-eabi/lib/armv7e-m/fpu/libc.a(lib_a-memcmp.o)
 .bss           0x200135c4        0x0 /home/jon/gcc-arm-none-eabi-5_2-2015q4/arm-none-eabi/lib/armv7e-m/fpu/libc.a(lib_a-memcpy.o)
 .bss           0x200135c4        0x0 /home/jon/gcc-arm-none-eabi-5_2-2015q4/arm-none-eabi/lib/armv7e-m/fpu/libc.a(lib_a-memset.o)
 .bss           0x200135c4        0x0 /home/jon/gcc-arm-none-eabi-5_2-2015q4/arm-none-eabi/lib/armv7e-m/fpu/libc.a(lib_a-puts.o)
 .bss           0x200135c4        0x0 /home/jon/gcc-arm-none-eabi-5_2-2015q4/arm-none-eabi/lib/armv7e-m/fpu/libc.a(lib_a-strlen.o)
 .bss           0x200135c4        0x0 /home/jon/gcc-arm-none-eabi-5_2-2015q4/arm-none-eabi/lib/armv7e-m/fpu/libc.a(lib_a-findfp.o)
 .bss           0x200135c4        0x0 /home/jon/gcc-arm-none-eabi-5_2-2015q4/arm-none-eabi/lib/armv7e-m/fpu/libc.a(lib_a-fvwrite.o)
 .bss           0x200135c4        0x0 /home/jon/gcc-arm-none-eabi-5_2-2015q4/arm-none-eabi/lib/armv7e-m/fpu/libc.a(lib_a-fwalk.o)
 .bss           0x200135c4        0x0 /home/jon/gcc-arm-none-eabi-5_2-2015q4/arm-none-eabi/lib/armv7e-m/fpu/libc.a(lib_a-mallocr.o)
 .bss.__malloc_max_total_mem
                0x200135c4        0x4 /home/jon/gcc-arm-none-eabi-5_2-2015q4/arm-none-eabi/lib/armv7e-m/fpu/libc.a(lib_a-mallocr.o)
                0x200135c4                __malloc_max_total_mem
 .bss.__malloc_max_sbrked_mem
                0x200135c8        0x4 /home/jon/gcc-arm-none-eabi-5_2-2015q4/arm-none-eabi/lib/armv7e-m/fpu/libc.a(lib_a-mallocr.o)
                0x200135c8                __malloc_max_sbrked_mem
 .bss.__malloc_top_pad
                0x200135cc        0x4 /home/jon/gcc-arm-none-eabi-5_2-2015q4/arm-none-eabi/lib/armv7e-m/fpu/libc.a(lib_a-mallocr.o)
                0x200135cc                __malloc_top_pad
 .bss.__malloc_current_mallinfo
                0x200135d0       0x28 /home/jon/gcc-arm-none-eabi-5_2-2015q4/arm-none-eabi/lib/armv7e-m/fpu/libc.a(lib_a-mallocr.o)
                0x200135d0                __malloc_current_mallinfo
 .bss           0x200135f8        0x0 /home/jon/gcc-arm-none-eabi-5_2-2015q4/arm-none-eabi/lib/armv7e-m/fpu/libc.a(lib_a-memchr.o)
 .bss           0x200135f8        0x0 /home/jon/gcc-arm-none-eabi-5_2-2015q4/arm-none-eabi/lib/armv7e-m/fpu/libc.a(lib_a-memmove.o)
 .bss           0x200135f8        0x0 /home/jon/gcc-arm-none-eabi-5_2-2015q4/arm-none-eabi/lib/armv7e-m/fpu/libc.a(lib_a-mlock.o)
 .bss           0x200135f8        0x0 /home/jon/gcc-arm-none-eabi-5_2-2015q4/arm-none-eabi/lib/armv7e-m/fpu/libc.a(lib_a-reallocr.o)
 .bss           0x200135f8        0x0 /home/jon/gcc-arm-none-eabi-5_2-2015q4/arm-none-eabi/lib/armv7e-m/fpu/libc.a(lib_a-sbrkr.o)
 .bss           0x200135f8        0x0 /home/jon/gcc-arm-none-eabi-5_2-2015q4/arm-none-eabi/lib/armv7e-m/fpu/libc.a(lib_a-stdio.o)
 .bss           0x200135f8        0x0 /home/jon/gcc-arm-none-eabi-5_2-2015q4/arm-none-eabi/lib/armv7e-m/fpu/libc.a(lib_a-writer.o)
 .bss           0x200135f8        0x0 /home/jon/gcc-arm-none-eabi-5_2-2015q4/arm-none-eabi/lib/armv7e-m/fpu/libc.a(lib_a-wsetup.o)
 .bss           0x200135f8        0x0 /home/jon/gcc-arm-none-eabi-5_2-2015q4/arm-none-eabi/lib/armv7e-m/fpu/libc.a(lib_a-closer.o)
 .bss           0x200135f8        0x0 /home/jon/gcc-arm-none-eabi-5_2-2015q4/arm-none-eabi/lib/armv7e-m/fpu/libc.a(lib_a-fclose.o)
 .bss           0x200135f8        0x0 /home/jon/gcc-arm-none-eabi-5_2-2015q4/arm-none-eabi/lib/armv7e-m/fpu/libc.a(lib_a-fflush.o)
 .bss           0x200135f8        0x0 /home/jon/gcc-arm-none-eabi-5_2-2015q4/arm-none-eabi/lib/armv7e-m/fpu/libc.a(lib_a-freer.o)
 .bss           0x200135f8        0x0 /home/jon/gcc-arm-none-eabi-5_2-2015q4/arm-none-eabi/lib/armv7e-m/fpu/libc.a(lib_a-lseekr.o)
 .bss           0x200135f8        0x0 /home/jon/gcc-arm-none-eabi-5_2-2015q4/arm-none-eabi/lib/armv7e-m/fpu/libc.a(lib_a-makebuf.o)
 .bss           0x200135f8        0x0 /home/jon/gcc-arm-none-eabi-5_2-2015q4/arm-none-eabi/lib/armv7e-m/fpu/libc.a(lib_a-readr.o)
 .bss           0x200135f8        0x0 /home/jon/gcc-arm-none-eabi-5_2-2015q4/arm-none-eabi/lib/armv7e-m/fpu/libc.a(lib_a-reent.o)
 .bss           0x200135f8        0x0 /home/jon/gcc-arm-none-eabi-5_2-2015q4/arm-none-eabi/lib/armv7e-m/fpu/libc.a(lib_a-fstatr.o)
 .bss           0x200135f8        0x0 /home/jon/gcc-arm-none-eabi-5_2-2015q4/arm-none-eabi/lib/armv7e-m/fpu/libc.a(lib_a-isattyr.o)
 .bss           0x200135f8        0x0 /home/jon/gcc-arm-none-eabi-5_2-2015q4/arm-none-eabi/lib/armv7e-m/fpu/libm.a(lib_a-sf_sin.o)
 .bss           0x200135f8        0x0 /home/jon/gcc-arm-none-eabi-5_2-2015q4/arm-none-eabi/lib/armv7e-m/fpu/libm.a(lib_a-ef_rem_pio2.o)
 .bss           0x200135f8        0x0 /home/jon/gcc-arm-none-eabi-5_2-2015q4/arm-none-eabi/lib/armv7e-m/fpu/libm.a(lib_a-kf_cos.o)
 .bss           0x200135f8        0x0 /home/jon/gcc-arm-none-eabi-5_2-2015q4/arm-none-eabi/lib/armv7e-m/fpu/libm.a(lib_a-kf_rem_pio2.o)
 .bss           0x200135f8        0x0 /home/jon/gcc-arm-none-eabi-5_2-2015q4/arm-none-eabi/lib/armv7e-m/fpu/libm.a(lib_a-kf_sin.o)
 .bss           0x200135f8        0x0 /home/jon/gcc-arm-none-eabi-5_2-2015q4/arm-none-eabi/lib/armv7e-m/fpu/libm.a(lib_a-sf_fabs.o)
 .bss           0x200135f8        0x0 /home/jon/gcc-arm-none-eabi-5_2-2015q4/arm-none-eabi/lib/armv7e-m/fpu/libm.a(lib_a-sf_floor.o)
 .bss           0x200135f8        0x0 /home/jon/gcc-arm-none-eabi-5_2-2015q4/arm-none-eabi/lib/armv7e-m/fpu/libm.a(lib_a-sf_scalbn.o)
 .bss           0x200135f8        0x0 /home/jon/gcc-arm-none-eabi-5_2-2015q4/arm-none-eabi/lib/armv7e-m/fpu/libm.a(lib_a-sf_copysign.o)
 *(.gnu.linkonce.b.*)
 *(COMMON)
 COMMON         0x200135f8       0x40 /home/jon/dev_src/SEU-Detect-Correct/build/queue.o
                0x200135f8                xQueueRegistry
 COMMON         0x20013638        0x4 /home/jon/gcc-arm-none-eabi-5_2-2015q4/arm-none-eabi/lib/armv7e-m/fpu/libc.a(lib_a-reent.o)
                0x20013638                errno
                0x2001363c                . = ALIGN (0x4)
                0x2001363c                crc_expire_times = .
                0x20013658                . = (crc_expire_times + (((block_end - block_base) / 0x3400) * 0x4))
 *fill*         0x2001363c       0x1c 
                0x20013658                _ebss = .
                0x20013658                __bss_end__ = _ebss
                0x20013658                end = .
                [!provide]                PROVIDE (flash_used_size, (((SIZEOF (.text) + SIZEOF (.data)) + SIZEOF (.ARM.extab)) + SIZEOF (.ARM.exidx)))
                0x20020000                PROVIDE (_estack, 0x20020000)
OUTPUT(/home/jon/dev_src/SEU-Detect-Correct/binary/finalFreeRTOS.elf elf32-littlearm)

.comment        0x00000000       0x6e
 .comment       0x00000000       0x6e /home/jon/dev_src/SEU-Detect-Correct/build/system_stm32f4xx.o
                                 0x6f (size before relaxing)
 .comment       0x0000006e       0x6f /home/jon/dev_src/SEU-Detect-Correct/build/main.o
 .comment       0x0000006e       0x6f /home/jon/dev_src/SEU-Detect-Correct/build/syscalls.o
 .comment       0x0000006e       0x6f /home/jon/dev_src/SEU-Detect-Correct/build/port.o
 .comment       0x0000006e       0x6f /home/jon/dev_src/SEU-Detect-Correct/build/list.o
 .comment       0x0000006e       0x6f /home/jon/dev_src/SEU-Detect-Correct/build/queue.o
 .comment       0x0000006e       0x6f /home/jon/dev_src/SEU-Detect-Correct/build/tasks.o
 .comment       0x0000006e       0x6f /home/jon/dev_src/SEU-Detect-Correct/build/event_groups.o
 .comment       0x0000006e       0x6f /home/jon/dev_src/SEU-Detect-Correct/build/timers.o
 .comment       0x0000006e       0x6f /home/jon/dev_src/SEU-Detect-Correct/build/heap_4.o
 .comment       0x0000006e       0x6f /home/jon/dev_src/SEU-Detect-Correct/build/stm32f4xx_syscfg.o
 .comment       0x0000006e       0x6f /home/jon/dev_src/SEU-Detect-Correct/build/misc.o
 .comment       0x0000006e       0x6f /home/jon/dev_src/SEU-Detect-Correct/build/stm32f4xx_adc.o
 .comment       0x0000006e       0x6f /home/jon/dev_src/SEU-Detect-Correct/build/stm32f4xx_dac.o
 .comment       0x0000006e       0x6f /home/jon/dev_src/SEU-Detect-Correct/build/stm32f4xx_dma.o
 .comment       0x0000006e       0x6f /home/jon/dev_src/SEU-Detect-Correct/build/stm32f4xx_exti.o
 .comment       0x0000006e       0x6f /home/jon/dev_src/SEU-Detect-Correct/build/stm32f4xx_flash.o
 .comment       0x0000006e       0x6f /home/jon/dev_src/SEU-Detect-Correct/build/stm32f4xx_gpio.o
 .comment       0x0000006e       0x6f /home/jon/dev_src/SEU-Detect-Correct/build/stm32f4xx_i2c.o
 .comment       0x0000006e       0x6f /home/jon/dev_src/SEU-Detect-Correct/build/stm32f4xx_rcc.o
 .comment       0x0000006e       0x6f /home/jon/dev_src/SEU-Detect-Correct/build/stm32f4xx_spi.o
 .comment       0x0000006e       0x6f /home/jon/dev_src/SEU-Detect-Correct/build/stm32f4xx_tim.o
 .comment       0x0000006e       0x6f /home/jon/dev_src/SEU-Detect-Correct/build/stm32f4xx_usart.o
 .comment       0x0000006e       0x6f /home/jon/dev_src/SEU-Detect-Correct/build/stm32f4xx_rng.o
 .comment       0x0000006e       0x6f /home/jon/dev_src/SEU-Detect-Correct/build/alpha_to.o
 .comment       0x0000006e       0x6f /home/jon/dev_src/SEU-Detect-Correct/build/index_of.o
 .comment       0x0000006e       0x6f /home/jon/dev_src/SEU-Detect-Correct/build/genpoly.o
 .comment       0x0000006e       0x6f build/trace_functions.o

.ARM.attributes
                0x00000000       0x35
 .ARM.attributes
                0x00000000       0x37 /home/jon/dev_src/SEU-Detect-Correct/build/system_stm32f4xx.o
 .ARM.attributes
                0x00000037       0x37 /home/jon/dev_src/SEU-Detect-Correct/build/main.o
 .ARM.attributes
                0x0000006e       0x37 /home/jon/dev_src/SEU-Detect-Correct/build/syscalls.o
 .ARM.attributes
                0x000000a5       0x37 /home/jon/dev_src/SEU-Detect-Correct/build/port.o
 .ARM.attributes
                0x000000dc       0x37 /home/jon/dev_src/SEU-Detect-Correct/build/list.o
 .ARM.attributes
                0x00000113       0x37 /home/jon/dev_src/SEU-Detect-Correct/build/queue.o
 .ARM.attributes
                0x0000014a       0x37 /home/jon/dev_src/SEU-Detect-Correct/build/tasks.o
 .ARM.attributes
                0x00000181       0x37 /home/jon/dev_src/SEU-Detect-Correct/build/event_groups.o
 .ARM.attributes
                0x000001b8       0x37 /home/jon/dev_src/SEU-Detect-Correct/build/timers.o
 .ARM.attributes
                0x000001ef       0x37 /home/jon/dev_src/SEU-Detect-Correct/build/heap_4.o
 .ARM.attributes
                0x00000226       0x37 /home/jon/dev_src/SEU-Detect-Correct/build/stm32f4xx_syscfg.o
 .ARM.attributes
                0x0000025d       0x37 /home/jon/dev_src/SEU-Detect-Correct/build/misc.o
 .ARM.attributes
                0x00000294       0x37 /home/jon/dev_src/SEU-Detect-Correct/build/stm32f4xx_adc.o
 .ARM.attributes
                0x000002cb       0x37 /home/jon/dev_src/SEU-Detect-Correct/build/stm32f4xx_dac.o
 .ARM.attributes
                0x00000302       0x37 /home/jon/dev_src/SEU-Detect-Correct/build/stm32f4xx_dma.o
 .ARM.attributes
                0x00000339       0x37 /home/jon/dev_src/SEU-Detect-Correct/build/stm32f4xx_exti.o
 .ARM.attributes
                0x00000370       0x37 /home/jon/dev_src/SEU-Detect-Correct/build/stm32f4xx_flash.o
 .ARM.attributes
                0x000003a7       0x37 /home/jon/dev_src/SEU-Detect-Correct/build/stm32f4xx_gpio.o
 .ARM.attributes
                0x000003de       0x37 /home/jon/dev_src/SEU-Detect-Correct/build/stm32f4xx_i2c.o
 .ARM.attributes
                0x00000415       0x37 /home/jon/dev_src/SEU-Detect-Correct/build/stm32f4xx_rcc.o
 .ARM.attributes
                0x0000044c       0x37 /home/jon/dev_src/SEU-Detect-Correct/build/stm32f4xx_spi.o
 .ARM.attributes
                0x00000483       0x37 /home/jon/dev_src/SEU-Detect-Correct/build/stm32f4xx_tim.o
 .ARM.attributes
                0x000004ba       0x37 /home/jon/dev_src/SEU-Detect-Correct/build/stm32f4xx_usart.o
 .ARM.attributes
                0x000004f1       0x37 /home/jon/dev_src/SEU-Detect-Correct/build/stm32f4xx_rng.o
 .ARM.attributes
                0x00000528       0x37 /home/jon/dev_src/SEU-Detect-Correct/build/alpha_to.o
 .ARM.attributes
                0x0000055f       0x37 /home/jon/dev_src/SEU-Detect-Correct/build/index_of.o
 .ARM.attributes
                0x00000596       0x37 /home/jon/dev_src/SEU-Detect-Correct/build/genpoly.o
 .ARM.attributes
                0x000005cd       0x37 build/trace_functions.o
 .ARM.attributes
                0x00000604       0x21 /home/jon/dev_src/SEU-Detect-Correct/build/startup_stm32f4xx.o
 .ARM.attributes
                0x00000625       0x34 /home/jon/gcc-arm-none-eabi-5_2-2015q4/arm-none-eabi/lib/armv7e-m/fpu/libc.a(lib_a-errno.o)
 .ARM.attributes
                0x00000659       0x34 /home/jon/gcc-arm-none-eabi-5_2-2015q4/arm-none-eabi/lib/armv7e-m/fpu/libc.a(lib_a-impure.o)
 .ARM.attributes
                0x0000068d       0x34 /home/jon/gcc-arm-none-eabi-5_2-2015q4/arm-none-eabi/lib/armv7e-m/fpu/libc.a(lib_a-memcmp.o)
 .ARM.attributes
                0x000006c1       0x20 /home/jon/gcc-arm-none-eabi-5_2-2015q4/arm-none-eabi/lib/armv7e-m/fpu/libc.a(lib_a-memcpy.o)
 .ARM.attributes
                0x000006e1       0x34 /home/jon/gcc-arm-none-eabi-5_2-2015q4/arm-none-eabi/lib/armv7e-m/fpu/libc.a(lib_a-memset.o)
 .ARM.attributes
                0x00000715       0x34 /home/jon/gcc-arm-none-eabi-5_2-2015q4/arm-none-eabi/lib/armv7e-m/fpu/libc.a(lib_a-puts.o)
 .ARM.attributes
                0x00000749       0x20 /home/jon/gcc-arm-none-eabi-5_2-2015q4/arm-none-eabi/lib/armv7e-m/fpu/libc.a(lib_a-strlen.o)
 .ARM.attributes
                0x00000769       0x34 /home/jon/gcc-arm-none-eabi-5_2-2015q4/arm-none-eabi/lib/armv7e-m/fpu/libc.a(lib_a-findfp.o)
 .ARM.attributes
                0x0000079d       0x34 /home/jon/gcc-arm-none-eabi-5_2-2015q4/arm-none-eabi/lib/armv7e-m/fpu/libc.a(lib_a-fvwrite.o)
 .ARM.attributes
                0x000007d1       0x34 /home/jon/gcc-arm-none-eabi-5_2-2015q4/arm-none-eabi/lib/armv7e-m/fpu/libc.a(lib_a-fwalk.o)
 .ARM.attributes
                0x00000805       0x34 /home/jon/gcc-arm-none-eabi-5_2-2015q4/arm-none-eabi/lib/armv7e-m/fpu/libc.a(lib_a-mallocr.o)
 .ARM.attributes
                0x00000839       0x20 /home/jon/gcc-arm-none-eabi-5_2-2015q4/arm-none-eabi/lib/armv7e-m/fpu/libc.a(lib_a-memchr.o)
 .ARM.attributes
                0x00000859       0x34 /home/jon/gcc-arm-none-eabi-5_2-2015q4/arm-none-eabi/lib/armv7e-m/fpu/libc.a(lib_a-memmove.o)
 .ARM.attributes
                0x0000088d       0x34 /home/jon/gcc-arm-none-eabi-5_2-2015q4/arm-none-eabi/lib/armv7e-m/fpu/libc.a(lib_a-mlock.o)
 .ARM.attributes
                0x000008c1       0x34 /home/jon/gcc-arm-none-eabi-5_2-2015q4/arm-none-eabi/lib/armv7e-m/fpu/libc.a(lib_a-reallocr.o)
 .ARM.attributes
                0x000008f5       0x34 /home/jon/gcc-arm-none-eabi-5_2-2015q4/arm-none-eabi/lib/armv7e-m/fpu/libc.a(lib_a-sbrkr.o)
 .ARM.attributes
                0x00000929       0x34 /home/jon/gcc-arm-none-eabi-5_2-2015q4/arm-none-eabi/lib/armv7e-m/fpu/libc.a(lib_a-stdio.o)
 .ARM.attributes
                0x0000095d       0x34 /home/jon/gcc-arm-none-eabi-5_2-2015q4/arm-none-eabi/lib/armv7e-m/fpu/libc.a(lib_a-writer.o)
 .ARM.attributes
                0x00000991       0x34 /home/jon/gcc-arm-none-eabi-5_2-2015q4/arm-none-eabi/lib/armv7e-m/fpu/libc.a(lib_a-wsetup.o)
 .ARM.attributes
                0x000009c5       0x34 /home/jon/gcc-arm-none-eabi-5_2-2015q4/arm-none-eabi/lib/armv7e-m/fpu/libc.a(lib_a-closer.o)
 .ARM.attributes
                0x000009f9       0x34 /home/jon/gcc-arm-none-eabi-5_2-2015q4/arm-none-eabi/lib/armv7e-m/fpu/libc.a(lib_a-fclose.o)
 .ARM.attributes
                0x00000a2d       0x34 /home/jon/gcc-arm-none-eabi-5_2-2015q4/arm-none-eabi/lib/armv7e-m/fpu/libc.a(lib_a-fflush.o)
 .ARM.attributes
                0x00000a61       0x34 /home/jon/gcc-arm-none-eabi-5_2-2015q4/arm-none-eabi/lib/armv7e-m/fpu/libc.a(lib_a-freer.o)
 .ARM.attributes
                0x00000a95       0x34 /home/jon/gcc-arm-none-eabi-5_2-2015q4/arm-none-eabi/lib/armv7e-m/fpu/libc.a(lib_a-lseekr.o)
 .ARM.attributes
                0x00000ac9       0x34 /home/jon/gcc-arm-none-eabi-5_2-2015q4/arm-none-eabi/lib/armv7e-m/fpu/libc.a(lib_a-makebuf.o)
 .ARM.attributes
                0x00000afd       0x34 /home/jon/gcc-arm-none-eabi-5_2-2015q4/arm-none-eabi/lib/armv7e-m/fpu/libc.a(lib_a-readr.o)
 .ARM.attributes
                0x00000b31       0x34 /home/jon/gcc-arm-none-eabi-5_2-2015q4/arm-none-eabi/lib/armv7e-m/fpu/libc.a(lib_a-reent.o)
 .ARM.attributes
                0x00000b65       0x34 /home/jon/gcc-arm-none-eabi-5_2-2015q4/arm-none-eabi/lib/armv7e-m/fpu/libc.a(lib_a-fstatr.o)
 .ARM.attributes
                0x00000b99       0x34 /home/jon/gcc-arm-none-eabi-5_2-2015q4/arm-none-eabi/lib/armv7e-m/fpu/libc.a(lib_a-isattyr.o)
 .ARM.attributes
                0x00000bcd       0x34 /home/jon/gcc-arm-none-eabi-5_2-2015q4/arm-none-eabi/lib/armv7e-m/fpu/libm.a(lib_a-sf_sin.o)
 .ARM.attributes
                0x00000c01       0x34 /home/jon/gcc-arm-none-eabi-5_2-2015q4/arm-none-eabi/lib/armv7e-m/fpu/libm.a(lib_a-ef_rem_pio2.o)
 .ARM.attributes
                0x00000c35       0x34 /home/jon/gcc-arm-none-eabi-5_2-2015q4/arm-none-eabi/lib/armv7e-m/fpu/libm.a(lib_a-kf_cos.o)
 .ARM.attributes
                0x00000c69       0x34 /home/jon/gcc-arm-none-eabi-5_2-2015q4/arm-none-eabi/lib/armv7e-m/fpu/libm.a(lib_a-kf_rem_pio2.o)
 .ARM.attributes
                0x00000c9d       0x34 /home/jon/gcc-arm-none-eabi-5_2-2015q4/arm-none-eabi/lib/armv7e-m/fpu/libm.a(lib_a-kf_sin.o)
 .ARM.attributes
                0x00000cd1       0x34 /home/jon/gcc-arm-none-eabi-5_2-2015q4/arm-none-eabi/lib/armv7e-m/fpu/libm.a(lib_a-sf_fabs.o)
 .ARM.attributes
                0x00000d05       0x34 /home/jon/gcc-arm-none-eabi-5_2-2015q4/arm-none-eabi/lib/armv7e-m/fpu/libm.a(lib_a-sf_floor.o)
 .ARM.attributes
                0x00000d39       0x34 /home/jon/gcc-arm-none-eabi-5_2-2015q4/arm-none-eabi/lib/armv7e-m/fpu/libm.a(lib_a-sf_scalbn.o)
 .ARM.attributes
                0x00000d6d       0x34 /home/jon/gcc-arm-none-eabi-5_2-2015q4/arm-none-eabi/lib/armv7e-m/fpu/libm.a(lib_a-sf_copysign.o)

.debug_frame    0x00000000      0x928
 .debug_frame   0x00000000       0x20 /home/jon/gcc-arm-none-eabi-5_2-2015q4/arm-none-eabi/lib/armv7e-m/fpu/libc.a(lib_a-errno.o)
 .debug_frame   0x00000020       0x38 /home/jon/gcc-arm-none-eabi-5_2-2015q4/arm-none-eabi/lib/armv7e-m/fpu/libc.a(lib_a-memcmp.o)
 .debug_frame   0x00000058       0x34 /home/jon/gcc-arm-none-eabi-5_2-2015q4/arm-none-eabi/lib/armv7e-m/fpu/libc.a(lib_a-memset.o)
 .debug_frame   0x0000008c       0x48 /home/jon/gcc-arm-none-eabi-5_2-2015q4/arm-none-eabi/lib/armv7e-m/fpu/libc.a(lib_a-puts.o)
 .debug_frame   0x000000d4      0x124 /home/jon/gcc-arm-none-eabi-5_2-2015q4/arm-none-eabi/lib/armv7e-m/fpu/libc.a(lib_a-findfp.o)
 .debug_frame   0x000001f8       0x68 /home/jon/gcc-arm-none-eabi-5_2-2015q4/arm-none-eabi/lib/armv7e-m/fpu/libc.a(lib_a-fvwrite.o)
 .debug_frame   0x00000260       0x54 /home/jon/gcc-arm-none-eabi-5_2-2015q4/arm-none-eabi/lib/armv7e-m/fpu/libc.a(lib_a-fwalk.o)
 .debug_frame   0x000002b4       0x58 /home/jon/gcc-arm-none-eabi-5_2-2015q4/arm-none-eabi/lib/armv7e-m/fpu/libc.a(lib_a-mallocr.o)
 .debug_frame   0x0000030c       0x30 /home/jon/gcc-arm-none-eabi-5_2-2015q4/arm-none-eabi/lib/armv7e-m/fpu/libc.a(lib_a-memmove.o)
 .debug_frame   0x0000033c       0x30 /home/jon/gcc-arm-none-eabi-5_2-2015q4/arm-none-eabi/lib/armv7e-m/fpu/libc.a(lib_a-mlock.o)
 .debug_frame   0x0000036c       0x60 /home/jon/gcc-arm-none-eabi-5_2-2015q4/arm-none-eabi/lib/armv7e-m/fpu/libc.a(lib_a-reallocr.o)
 .debug_frame   0x000003cc       0x2c /home/jon/gcc-arm-none-eabi-5_2-2015q4/arm-none-eabi/lib/armv7e-m/fpu/libc.a(lib_a-sbrkr.o)
 .debug_frame   0x000003f8       0x88 /home/jon/gcc-arm-none-eabi-5_2-2015q4/arm-none-eabi/lib/armv7e-m/fpu/libc.a(lib_a-stdio.o)
 .debug_frame   0x00000480       0x2c /home/jon/gcc-arm-none-eabi-5_2-2015q4/arm-none-eabi/lib/armv7e-m/fpu/libc.a(lib_a-writer.o)
 .debug_frame   0x000004ac       0x2c /home/jon/gcc-arm-none-eabi-5_2-2015q4/arm-none-eabi/lib/armv7e-m/fpu/libc.a(lib_a-wsetup.o)
 .debug_frame   0x000004d8       0x2c /home/jon/gcc-arm-none-eabi-5_2-2015q4/arm-none-eabi/lib/armv7e-m/fpu/libc.a(lib_a-closer.o)
 .debug_frame   0x00000504       0x44 /home/jon/gcc-arm-none-eabi-5_2-2015q4/arm-none-eabi/lib/armv7e-m/fpu/libc.a(lib_a-fclose.o)
 .debug_frame   0x00000548       0x6c /home/jon/gcc-arm-none-eabi-5_2-2015q4/arm-none-eabi/lib/armv7e-m/fpu/libc.a(lib_a-fflush.o)
 .debug_frame   0x000005b4       0x74 /home/jon/gcc-arm-none-eabi-5_2-2015q4/arm-none-eabi/lib/armv7e-m/fpu/libc.a(lib_a-freer.o)
 .debug_frame   0x00000628       0x2c /home/jon/gcc-arm-none-eabi-5_2-2015q4/arm-none-eabi/lib/armv7e-m/fpu/libc.a(lib_a-lseekr.o)
 .debug_frame   0x00000654       0x48 /home/jon/gcc-arm-none-eabi-5_2-2015q4/arm-none-eabi/lib/armv7e-m/fpu/libc.a(lib_a-makebuf.o)
 .debug_frame   0x0000069c       0x2c /home/jon/gcc-arm-none-eabi-5_2-2015q4/arm-none-eabi/lib/armv7e-m/fpu/libc.a(lib_a-readr.o)
 .debug_frame   0x000006c8       0x58 /home/jon/gcc-arm-none-eabi-5_2-2015q4/arm-none-eabi/lib/armv7e-m/fpu/libc.a(lib_a-reent.o)
 .debug_frame   0x00000720       0x2c /home/jon/gcc-arm-none-eabi-5_2-2015q4/arm-none-eabi/lib/armv7e-m/fpu/libc.a(lib_a-fstatr.o)
 .debug_frame   0x0000074c       0x2c /home/jon/gcc-arm-none-eabi-5_2-2015q4/arm-none-eabi/lib/armv7e-m/fpu/libc.a(lib_a-isattyr.o)
 .debug_frame   0x00000778       0x34 /home/jon/gcc-arm-none-eabi-5_2-2015q4/arm-none-eabi/lib/armv7e-m/fpu/libm.a(lib_a-sf_sin.o)
 .debug_frame   0x000007ac       0x3c /home/jon/gcc-arm-none-eabi-5_2-2015q4/arm-none-eabi/lib/armv7e-m/fpu/libm.a(lib_a-ef_rem_pio2.o)
 .debug_frame   0x000007e8       0x20 /home/jon/gcc-arm-none-eabi-5_2-2015q4/arm-none-eabi/lib/armv7e-m/fpu/libm.a(lib_a-kf_cos.o)
 .debug_frame   0x00000808       0x5c /home/jon/gcc-arm-none-eabi-5_2-2015q4/arm-none-eabi/lib/armv7e-m/fpu/libm.a(lib_a-kf_rem_pio2.o)
 .debug_frame   0x00000864       0x20 /home/jon/gcc-arm-none-eabi-5_2-2015q4/arm-none-eabi/lib/armv7e-m/fpu/libm.a(lib_a-kf_sin.o)
 .debug_frame   0x00000884       0x20 /home/jon/gcc-arm-none-eabi-5_2-2015q4/arm-none-eabi/lib/armv7e-m/fpu/libm.a(lib_a-sf_fabs.o)
 .debug_frame   0x000008a4       0x20 /home/jon/gcc-arm-none-eabi-5_2-2015q4/arm-none-eabi/lib/armv7e-m/fpu/libm.a(lib_a-sf_floor.o)
 .debug_frame   0x000008c4       0x44 /home/jon/gcc-arm-none-eabi-5_2-2015q4/arm-none-eabi/lib/armv7e-m/fpu/libm.a(lib_a-sf_scalbn.o)
 .debug_frame   0x00000908       0x20 /home/jon/gcc-arm-none-eabi-5_2-2015q4/arm-none-eabi/lib/armv7e-m/fpu/libm.a(lib_a-sf_copysign.o)
